	.file	"Wire.cpp"
	.option nopic
	.text
.Ltext0:
	.section	.text._ZN5Print13setWriteErrorEi,"axG",@progbits,_ZN5Print13setWriteErrorEi,comdat
	.align	1
	.weak	_ZN5Print13setWriteErrorEi
	.type	_ZN5Print13setWriteErrorEi, @function
_ZN5Print13setWriteErrorEi:
.LFB83:
	.file 1 "C:\\RT-ThreadStudio\\workspace\\AQMS_LCD\\packages\\RTduino-latest\\core/Print.h"
	.loc 1 53 10
	.cfi_startproc
	addi	sp,sp,-32
	.cfi_def_cfa_offset 32
	sw	s0,28(sp)
	.cfi_offset 8, -4
	addi	s0,sp,32
	.cfi_def_cfa 8, 0
	sw	a0,-20(s0)
	sw	a1,-24(s0)
	.loc 1 53 51
	lw	a5,-20(s0)
	lw	a4,-24(s0)
	sw	a4,4(a5)
	.loc 1 53 58
	nop
	lw	s0,28(sp)
	.cfi_restore 8
	addi	sp,sp,32
	.cfi_def_cfa_register 2
	jr	ra
	.cfi_endproc
.LFE83:
	.size	_ZN5Print13setWriteErrorEi, .-_ZN5Print13setWriteErrorEi
	.section	.text._ZN5PrintC2Ev,"axG",@progbits,_ZN5PrintC5Ev,comdat
	.align	1
	.weak	_ZN5PrintC2Ev
	.type	_ZN5PrintC2Ev, @function
_ZN5PrintC2Ev:
.LFB85:
	.loc 1 55 5
	.cfi_startproc
	addi	sp,sp,-32
	.cfi_def_cfa_offset 32
	sw	s0,28(sp)
	.cfi_offset 8, -4
	addi	s0,sp,32
	.cfi_def_cfa 8, 0
	sw	a0,-20(s0)
.LBB2:
	.loc 1 55 28
	lla	a4,_ZTV5Print+8
	lw	a5,-20(s0)
	sw	a4,0(a5)
	lw	a5,-20(s0)
	sw	zero,4(a5)
.LBE2:
	.loc 1 55 31
	nop
	lw	s0,28(sp)
	.cfi_restore 8
	addi	sp,sp,32
	.cfi_def_cfa_register 2
	jr	ra
	.cfi_endproc
.LFE85:
	.size	_ZN5PrintC2Ev, .-_ZN5PrintC2Ev
	.weak	_ZN5PrintC1Ev
	.set	_ZN5PrintC1Ev,_ZN5PrintC2Ev
	.section	.text._ZN5Print17availableForWriteEv,"axG",@progbits,_ZN5Print17availableForWriteEv,comdat
	.align	1
	.weak	_ZN5Print17availableForWriteEv
	.type	_ZN5Print17availableForWriteEv, @function
_ZN5Print17availableForWriteEv:
.LFB91:
	.loc 1 72 17
	.cfi_startproc
	addi	sp,sp,-32
	.cfi_def_cfa_offset 32
	sw	s0,28(sp)
	.cfi_offset 8, -4
	addi	s0,sp,32
	.cfi_def_cfa 8, 0
	sw	a0,-20(s0)
	.loc 1 72 46
	li	a5,0
	.loc 1 72 49
	mv	a0,a5
	lw	s0,28(sp)
	.cfi_restore 8
	addi	sp,sp,32
	.cfi_def_cfa_register 2
	jr	ra
	.cfi_endproc
.LFE91:
	.size	_ZN5Print17availableForWriteEv, .-_ZN5Print17availableForWriteEv
	.section	.text._ZN5Print5flushEv,"axG",@progbits,_ZN5Print5flushEv,comdat
	.align	1
	.weak	_ZN5Print5flushEv
	.type	_ZN5Print5flushEv, @function
_ZN5Print5flushEv:
.LFB92:
	.loc 1 99 18
	.cfi_startproc
	addi	sp,sp,-32
	.cfi_def_cfa_offset 32
	sw	s0,28(sp)
	.cfi_offset 8, -4
	addi	s0,sp,32
	.cfi_def_cfa 8, 0
	sw	a0,-20(s0)
	.loc 1 99 28
	nop
	lw	s0,28(sp)
	.cfi_restore 8
	addi	sp,sp,32
	.cfi_def_cfa_register 2
	jr	ra
	.cfi_endproc
.LFE92:
	.size	_ZN5Print5flushEv, .-_ZN5Print5flushEv
	.section	.text._ZN6StreamC2Ev,"axG",@progbits,_ZN6StreamC5Ev,comdat
	.align	1
	.weak	_ZN6StreamC2Ev
	.type	_ZN6StreamC2Ev, @function
_ZN6StreamC2Ev:
.LFB94:
	.file 2 "C:\\RT-ThreadStudio\\workspace\\AQMS_LCD\\packages\\RTduino-latest\\core/Stream.h"
	.loc 2 75 5
	.cfi_startproc
	addi	sp,sp,-32
	.cfi_def_cfa_offset 32
	sw	ra,28(sp)
	sw	s0,24(sp)
	.cfi_offset 1, -4
	.cfi_offset 8, -8
	addi	s0,sp,32
	.cfi_def_cfa 8, 0
	sw	a0,-20(s0)
.LBB3:
	.loc 2 75 14
	lw	a5,-20(s0)
	mv	a0,a5
	call	_ZN5PrintC2Ev
	lla	a4,_ZTV6Stream+8
	lw	a5,-20(s0)
	sw	a4,0(a5)
	.loc 2 75 23
	lw	a5,-20(s0)
	li	a4,1000
	sw	a4,8(a5)
.LBE3:
	.loc 2 75 29
	nop
	lw	ra,28(sp)
	.cfi_restore 1
	lw	s0,24(sp)
	.cfi_restore 8
	addi	sp,sp,32
	.cfi_def_cfa_register 2
	jr	ra
	.cfi_endproc
.LFE94:
	.size	_ZN6StreamC2Ev, .-_ZN6StreamC2Ev
	.weak	_ZN6StreamC1Ev
	.set	_ZN6StreamC1Ev,_ZN6StreamC2Ev
	.text
	.align	1
	.globl	_ZN7TwoWire12twi_readFromEhPhjh
	.type	_ZN7TwoWire12twi_readFromEhPhjh, @function
_ZN7TwoWire12twi_readFromEhPhjh:
.LFB270:
	.file 3 "../packages/RTduino-latest/libraries/buildin/Wire/Wire.cpp"
	.loc 3 61 1
	.cfi_startproc
	addi	sp,sp,-48
	.cfi_def_cfa_offset 48
	sw	ra,44(sp)
	sw	s0,40(sp)
	.cfi_offset 1, -4
	.cfi_offset 8, -8
	addi	s0,sp,48
	.cfi_def_cfa 8, 0
	sw	a0,-36(s0)
	mv	a5,a1
	sw	a2,-44(s0)
	sw	a3,-48(s0)
	sb	a5,-37(s0)
	mv	a5,a4
	sb	a5,-38(s0)
	.loc 3 62 17
	sh	zero,-18(s0)
	.loc 3 64 5
	lbu	a5,-38(s0)
	bnez	a5,.L8
	.loc 3 66 14
	lhu	a5,-18(s0)
	ori	a5,a5,128
	sh	a5,-18(s0)
.L8:
	.loc 3 69 30
	lw	a5,-36(s0)
	lw	a5,112(a5)
	lbu	a4,-37(s0)
	slli	a1,a4,16
	srli	a1,a1,16
	lhu	a2,-18(s0)
	lw	a4,-48(s0)
	lw	a3,-44(s0)
	mv	a0,a5
	call	rt_i2c_master_recv
	mv	a5,a0
	.loc 3 69 68
	andi	a5,a5,0xff
	.loc 3 70 1
	mv	a0,a5
	lw	ra,44(sp)
	.cfi_restore 1
	lw	s0,40(sp)
	.cfi_restore 8
	addi	sp,sp,48
	.cfi_def_cfa_register 2
	jr	ra
	.cfi_endproc
.LFE270:
	.size	_ZN7TwoWire12twi_readFromEhPhjh, .-_ZN7TwoWire12twi_readFromEhPhjh
	.align	1
	.globl	_ZN7TwoWire11twi_writeToEhPhjh
	.type	_ZN7TwoWire11twi_writeToEhPhjh, @function
_ZN7TwoWire11twi_writeToEhPhjh:
.LFB271:
	.loc 3 87 1
	.cfi_startproc
	addi	sp,sp,-48
	.cfi_def_cfa_offset 48
	sw	ra,44(sp)
	sw	s0,40(sp)
	.cfi_offset 1, -4
	.cfi_offset 8, -8
	addi	s0,sp,48
	.cfi_def_cfa 8, 0
	sw	a0,-36(s0)
	mv	a5,a1
	sw	a2,-44(s0)
	sw	a3,-48(s0)
	sb	a5,-37(s0)
	mv	a5,a4
	sb	a5,-38(s0)
	.loc 3 88 17
	sh	zero,-18(s0)
	.loc 3 90 5
	lbu	a5,-38(s0)
	bnez	a5,.L11
	.loc 3 92 14
	lhu	a5,-18(s0)
	ori	a5,a5,128
	sh	a5,-18(s0)
.L11:
	.loc 3 95 26
	lw	a5,-36(s0)
	lw	a5,112(a5)
	lbu	a4,-37(s0)
	slli	a1,a4,16
	srli	a1,a1,16
	lhu	a2,-18(s0)
	lw	a4,-48(s0)
	lw	a3,-44(s0)
	mv	a0,a5
	call	rt_i2c_master_send
	mv	a5,a0
	.loc 3 95 66
	snez	a5,a5
	andi	a5,a5,0xff
	.loc 3 95 5
	beqz	a5,.L12
	.loc 3 97 16
	li	a5,0
	j	.L13
.L12:
	.loc 3 101 16
	li	a5,4
.L13:
	.loc 3 103 1
	mv	a0,a5
	lw	ra,44(sp)
	.cfi_restore 1
	lw	s0,40(sp)
	.cfi_restore 8
	addi	sp,sp,48
	.cfi_def_cfa_register 2
	jr	ra
	.cfi_endproc
.LFE271:
	.size	_ZN7TwoWire11twi_writeToEhPhjh, .-_ZN7TwoWire11twi_writeToEhPhjh
	.align	1
	.globl	_ZN7TwoWire12twi_transmitEPKhh
	.type	_ZN7TwoWire12twi_transmitEPKhh, @function
_ZN7TwoWire12twi_transmitEPKhh:
.LFB272:
	.loc 3 116 1
	.cfi_startproc
	addi	sp,sp,-48
	.cfi_def_cfa_offset 48
	sw	ra,44(sp)
	sw	s0,40(sp)
	.cfi_offset 1, -4
	.cfi_offset 8, -8
	addi	s0,sp,48
	.cfi_def_cfa 8, 0
	sw	a0,-36(s0)
	sw	a1,-40(s0)
	mv	a5,a2
	sb	a5,-41(s0)
	.loc 3 117 36
	lw	a5,-36(s0)
	lw	a0,112(a5)
	.loc 3 117 51
	lw	a5,-36(s0)
	lbu	a5,56(a5)
	.loc 3 117 36
	slli	a5,a5,16
	srli	a5,a5,16
	lbu	a4,-41(s0)
	lw	a3,-40(s0)
	li	a2,0
	mv	a1,a5
	call	rt_i2c_master_send
	mv	a5,a0
	.loc 3 117 73
	sb	a5,-17(s0)
	.loc 3 119 5
	lb	a5,-17(s0)
	blez	a5,.L15
	.loc 3 121 16
	li	a5,0
	j	.L16
.L15:
	.loc 3 125 16
	li	a5,4
.L16:
	.loc 3 127 1
	mv	a0,a5
	lw	ra,44(sp)
	.cfi_restore 1
	lw	s0,40(sp)
	.cfi_restore 8
	addi	sp,sp,48
	.cfi_def_cfa_register 2
	jr	ra
	.cfi_endproc
.LFE272:
	.size	_ZN7TwoWire12twi_transmitEPKhh, .-_ZN7TwoWire12twi_transmitEPKhh
	.align	1
	.globl	_Z11twi_disablev
	.type	_Z11twi_disablev, @function
_Z11twi_disablev:
.LFB273:
	.loc 3 136 1
	.cfi_startproc
	addi	sp,sp,-16
	.cfi_def_cfa_offset 16
	sw	s0,12(sp)
	.cfi_offset 8, -4
	addi	s0,sp,16
	.cfi_def_cfa 8, 0
	.loc 3 137 1
	nop
	lw	s0,12(sp)
	.cfi_restore 8
	addi	sp,sp,16
	.cfi_def_cfa_register 2
	jr	ra
	.cfi_endproc
.LFE273:
	.size	_Z11twi_disablev, .-_Z11twi_disablev
	.align	1
	.globl	_ZN7TwoWireC2Ev
	.type	_ZN7TwoWireC2Ev, @function
_ZN7TwoWireC2Ev:
.LFB275:
	.loc 3 141 1
	.cfi_startproc
	addi	sp,sp,-32
	.cfi_def_cfa_offset 32
	sw	ra,28(sp)
	sw	s0,24(sp)
	.cfi_offset 1, -4
	.cfi_offset 8, -8
	addi	s0,sp,32
	.cfi_def_cfa 8, 0
	sw	a0,-20(s0)
.LBB4:
	.loc 3 141 18
	lw	a5,-20(s0)
	mv	a0,a5
	call	_ZN6StreamC2Ev
	lla	a4,_ZTV7TwoWire+8
	lw	a5,-20(s0)
	sw	a4,0(a5)
	.loc 3 143 18
	lw	a5,-20(s0)
	sw	zero,112(a5)
	.loc 3 144 15
	lw	a5,-20(s0)
	addi	a5,a5,16
	.loc 3 144 14
	li	a2,32
	li	a1,0
	mv	a0,a5
	call	rt_memset
	.loc 3 145 15
	lw	a5,-20(s0)
	addi	a5,a5,57
	.loc 3 145 14
	li	a2,32
	li	a1,0
	mv	a0,a5
	call	rt_memset
	.loc 3 146 19
	lw	a5,-20(s0)
	sw	zero,48(a5)
	.loc 3 147 20
	lw	a5,-20(s0)
	sw	zero,52(a5)
	.loc 3 148 15
	lw	a5,-20(s0)
	sb	zero,56(a5)
	.loc 3 149 19
	lw	a5,-20(s0)
	sw	zero,92(a5)
	.loc 3 150 20
	lw	a5,-20(s0)
	sw	zero,96(a5)
	.loc 3 151 18
	lw	a5,-20(s0)
	sb	zero,100(a5)
	.loc 3 152 20
	lw	a5,-20(s0)
	sw	zero,104(a5)
	.loc 3 153 20
	lw	a5,-20(s0)
	sw	zero,108(a5)
.LBE4:
	.loc 3 154 1
	nop
	lw	ra,28(sp)
	.cfi_restore 1
	lw	s0,24(sp)
	.cfi_restore 8
	addi	sp,sp,32
	.cfi_def_cfa_register 2
	jr	ra
	.cfi_endproc
.LFE275:
	.size	_ZN7TwoWireC2Ev, .-_ZN7TwoWireC2Ev
	.globl	_ZN7TwoWireC1Ev
	.set	_ZN7TwoWireC1Ev,_ZN7TwoWireC2Ev
	.section	.rodata
	.align	2
.LC0:
	.string	"[E/RTduino.Wire] "
	.align	2
.LC1:
	.string	"Cannot find IIC device!"
	.align	2
.LC2:
	.string	"\n"
	.text
	.align	1
	.globl	_ZN7TwoWire5beginEPKc
	.type	_ZN7TwoWire5beginEPKc, @function
_ZN7TwoWire5beginEPKc:
.LFB277:
	.loc 3 159 1
	.cfi_startproc
	addi	sp,sp,-48
	.cfi_def_cfa_offset 48
	sw	ra,44(sp)
	sw	s0,40(sp)
	.cfi_offset 1, -4
	.cfi_offset 8, -8
	addi	s0,sp,48
	.cfi_def_cfa 8, 0
	sw	a0,-36(s0)
	sw	a1,-40(s0)
	.loc 3 162 53
	lw	a0,-40(s0)
	call	rt_device_find
	mv	a5,a0
	sw	a5,-20(s0)
	.loc 3 163 5
	lw	a5,-20(s0)
	bnez	a5,.L20
	.loc 3 165 24
	lla	a0,.LC0
	call	rt_kprintf
	.loc 3 165 69
	lla	a0,.LC1
	call	rt_kprintf
	.loc 3 165 108
	lla	a0,.LC2
	call	rt_kprintf
	.loc 3 166 9
	j	.L19
.L20:
	.loc 3 168 18
	lw	a5,-36(s0)
	lw	a4,-20(s0)
	sw	a4,112(a5)
	.loc 3 170 19
	lw	a5,-36(s0)
	sw	zero,48(a5)
	.loc 3 171 20
	lw	a5,-36(s0)
	sw	zero,52(a5)
	.loc 3 173 19
	lw	a5,-36(s0)
	sw	zero,92(a5)
	.loc 3 174 20
	lw	a5,-36(s0)
	sw	zero,96(a5)
.L19:
	.loc 3 175 1
	lw	ra,44(sp)
	.cfi_restore 1
	lw	s0,40(sp)
	.cfi_restore 8
	addi	sp,sp,48
	.cfi_def_cfa_register 2
	jr	ra
	.cfi_endproc
.LFE277:
	.size	_ZN7TwoWire5beginEPKc, .-_ZN7TwoWire5beginEPKc
	.align	1
	.globl	_ZN7TwoWire3endEv
	.type	_ZN7TwoWire3endEv, @function
_ZN7TwoWire3endEv:
.LFB278:
	.loc 3 187 1
	.cfi_startproc
	addi	sp,sp,-32
	.cfi_def_cfa_offset 32
	sw	ra,28(sp)
	sw	s0,24(sp)
	.cfi_offset 1, -4
	.cfi_offset 8, -8
	addi	s0,sp,32
	.cfi_def_cfa 8, 0
	sw	a0,-20(s0)
	.loc 3 188 16
	call	_Z11twi_disablev
	.loc 3 189 1
	nop
	lw	ra,28(sp)
	.cfi_restore 1
	lw	s0,24(sp)
	.cfi_restore 8
	addi	sp,sp,32
	.cfi_def_cfa_register 2
	jr	ra
	.cfi_endproc
.LFE278:
	.size	_ZN7TwoWire3endEv, .-_ZN7TwoWire3endEv
	.align	1
	.globl	_ZN7TwoWire8setClockEm
	.type	_ZN7TwoWire8setClockEm, @function
_ZN7TwoWire8setClockEm:
.LFB279:
	.loc 3 192 1
	.cfi_startproc
	addi	sp,sp,-32
	.cfi_def_cfa_offset 32
	sw	s0,28(sp)
	.cfi_offset 8, -4
	addi	s0,sp,32
	.cfi_def_cfa 8, 0
	sw	a0,-20(s0)
	sw	a1,-24(s0)
	.loc 3 194 1
	nop
	lw	s0,28(sp)
	.cfi_restore 8
	addi	sp,sp,32
	.cfi_def_cfa_register 2
	jr	ra
	.cfi_endproc
.LFE279:
	.size	_ZN7TwoWire8setClockEm, .-_ZN7TwoWire8setClockEm
	.align	1
	.globl	_ZN7TwoWire14setWireTimeoutEmb
	.type	_ZN7TwoWire14setWireTimeoutEmb, @function
_ZN7TwoWire14setWireTimeoutEmb:
.LFB280:
	.loc 3 222 1
	.cfi_startproc
	addi	sp,sp,-32
	.cfi_def_cfa_offset 32
	sw	s0,28(sp)
	.cfi_offset 8, -4
	addi	s0,sp,32
	.cfi_def_cfa 8, 0
	sw	a0,-20(s0)
	sw	a1,-24(s0)
	mv	a5,a2
	sb	a5,-25(s0)
	.loc 3 224 1
	nop
	lw	s0,28(sp)
	.cfi_restore 8
	addi	sp,sp,32
	.cfi_def_cfa_register 2
	jr	ra
	.cfi_endproc
.LFE280:
	.size	_ZN7TwoWire14setWireTimeoutEmb, .-_ZN7TwoWire14setWireTimeoutEmb
	.align	1
	.globl	_ZN7TwoWire11requestFromEhhmhh
	.type	_ZN7TwoWire11requestFromEhhmhh, @function
_ZN7TwoWire11requestFromEhhmhh:
.LFB281:
	.loc 3 227 1
	.cfi_startproc
	addi	sp,sp,-48
	.cfi_def_cfa_offset 48
	sw	ra,44(sp)
	sw	s0,40(sp)
	.cfi_offset 1, -4
	.cfi_offset 8, -8
	addi	s0,sp,48
	.cfi_def_cfa 8, 0
	sw	a0,-36(s0)
	sw	a3,-44(s0)
	mv	a3,a4
	mv	a4,a5
	mv	a5,a1
	sb	a5,-37(s0)
	mv	a5,a2
	sb	a5,-38(s0)
	mv	a5,a3
	sb	a5,-39(s0)
	mv	a5,a4
	sb	a5,-40(s0)
	.loc 3 228 3
	lbu	a5,-39(s0)
	beqz	a5,.L26
	.loc 3 233 20
	lbu	a5,-37(s0)
	mv	a1,a5
	lw	a0,-36(s0)
	call	_ZN7TwoWire17beginTransmissionEh
	.loc 3 236 3
	lbu	a4,-39(s0)
	li	a5,3
	bleu	a4,a5,.L29
	.loc 3 237 11
	li	a5,3
	sb	a5,-39(s0)
.L29:
	.loc 3 241 15
	lbu	a5,-39(s0)
	addi	a4,a5,-1
	sb	a4,-39(s0)
	.loc 3 241 18
	snez	a5,a5
	andi	a5,a5,0xff
	beqz	a5,.L28
	.loc 3 242 43
	lw	a5,-36(s0)
	lw	a5,0(a5)
	lw	a3,0(a5)
	.loc 3 242 39
	lbu	a5,-39(s0)
	slli	a5,a5,3
	.loc 3 242 30
	lw	a4,-44(s0)
	srl	a5,a4,a5
	.loc 3 242 10
	andi	a5,a5,0xff
	mv	a1,a5
	lw	a0,-36(s0)
	jalr	a3
.LVL0:
	.loc 3 241 3
	j	.L29
.L28:
	.loc 3 243 18
	li	a1,0
	lw	a0,-36(s0)
	call	_ZN7TwoWire15endTransmissionEh
.L26:
	.loc 3 247 3
	lbu	a4,-38(s0)
	li	a5,32
	bleu	a4,a5,.L30
	.loc 3 248 14
	li	a5,32
	sb	a5,-38(s0)
.L30:
	.loc 3 251 40
	lw	a5,-36(s0)
	addi	a2,a5,16
	.loc 3 251 30
	lbu	a3,-38(s0)
	lbu	a4,-40(s0)
	lbu	a5,-37(s0)
	mv	a1,a5
	lw	a0,-36(s0)
	call	_ZN7TwoWire12twi_readFromEhPhjh
	mv	a5,a0
	sb	a5,-17(s0)
	.loc 3 253 17
	lw	a5,-36(s0)
	sw	zero,48(a5)
	.loc 3 254 18
	lbu	a4,-17(s0)
	lw	a5,-36(s0)
	sw	a4,52(a5)
	.loc 3 256 10
	lbu	a5,-17(s0)
	.loc 3 257 1
	mv	a0,a5
	lw	ra,44(sp)
	.cfi_restore 1
	lw	s0,40(sp)
	.cfi_restore 8
	addi	sp,sp,48
	.cfi_def_cfa_register 2
	jr	ra
	.cfi_endproc
.LFE281:
	.size	_ZN7TwoWire11requestFromEhhmhh, .-_ZN7TwoWire11requestFromEhhmhh
	.align	1
	.globl	_ZN7TwoWire11requestFromEhhh
	.type	_ZN7TwoWire11requestFromEhhh, @function
_ZN7TwoWire11requestFromEhhh:
.LFB282:
	.loc 3 259 83
	.cfi_startproc
	addi	sp,sp,-32
	.cfi_def_cfa_offset 32
	sw	ra,28(sp)
	sw	s0,24(sp)
	.cfi_offset 1, -4
	.cfi_offset 8, -8
	addi	s0,sp,32
	.cfi_def_cfa 8, 0
	sw	a0,-20(s0)
	mv	a5,a1
	mv	a4,a3
	sb	a5,-21(s0)
	mv	a5,a2
	sb	a5,-22(s0)
	mv	a5,a4
	sb	a5,-23(s0)
	.loc 3 260 23
	lbu	a5,-23(s0)
	lbu	a2,-22(s0)
	lbu	a1,-21(s0)
	li	a4,0
	li	a3,0
	lw	a0,-20(s0)
	call	_ZN7TwoWire11requestFromEhhmhh
	mv	a5,a0
	.loc 3 261 1
	mv	a0,a5
	lw	ra,28(sp)
	.cfi_restore 1
	lw	s0,24(sp)
	.cfi_restore 8
	addi	sp,sp,32
	.cfi_def_cfa_register 2
	jr	ra
	.cfi_endproc
.LFE282:
	.size	_ZN7TwoWire11requestFromEhhh, .-_ZN7TwoWire11requestFromEhhh
	.align	1
	.globl	_ZN7TwoWire11requestFromEhh
	.type	_ZN7TwoWire11requestFromEhh, @function
_ZN7TwoWire11requestFromEhh:
.LFB283:
	.loc 3 264 1
	.cfi_startproc
	addi	sp,sp,-32
	.cfi_def_cfa_offset 32
	sw	ra,28(sp)
	sw	s0,24(sp)
	.cfi_offset 1, -4
	.cfi_offset 8, -8
	addi	s0,sp,32
	.cfi_def_cfa 8, 0
	sw	a0,-20(s0)
	mv	a5,a1
	mv	a4,a2
	sb	a5,-21(s0)
	mv	a5,a4
	sb	a5,-22(s0)
	.loc 3 265 21
	lbu	a4,-22(s0)
	lbu	a5,-21(s0)
	li	a3,1
	mv	a2,a4
	mv	a1,a5
	lw	a0,-20(s0)
	call	_ZN7TwoWire11requestFromEhhh
	mv	a5,a0
	.loc 3 266 1
	mv	a0,a5
	lw	ra,28(sp)
	.cfi_restore 1
	lw	s0,24(sp)
	.cfi_restore 8
	addi	sp,sp,32
	.cfi_def_cfa_register 2
	jr	ra
	.cfi_endproc
.LFE283:
	.size	_ZN7TwoWire11requestFromEhh, .-_ZN7TwoWire11requestFromEhh
	.align	1
	.globl	_ZN7TwoWire11requestFromEii
	.type	_ZN7TwoWire11requestFromEii, @function
_ZN7TwoWire11requestFromEii:
.LFB284:
	.loc 3 269 1
	.cfi_startproc
	addi	sp,sp,-32
	.cfi_def_cfa_offset 32
	sw	ra,28(sp)
	sw	s0,24(sp)
	.cfi_offset 1, -4
	.cfi_offset 8, -8
	addi	s0,sp,32
	.cfi_def_cfa 8, 0
	sw	a0,-20(s0)
	sw	a1,-24(s0)
	sw	a2,-28(s0)
	.loc 3 270 21
	lw	a5,-24(s0)
	andi	a5,a5,0xff
	lw	a4,-28(s0)
	andi	a4,a4,0xff
	li	a3,1
	mv	a2,a4
	mv	a1,a5
	lw	a0,-20(s0)
	call	_ZN7TwoWire11requestFromEhhh
	mv	a5,a0
	.loc 3 271 1
	mv	a0,a5
	lw	ra,28(sp)
	.cfi_restore 1
	lw	s0,24(sp)
	.cfi_restore 8
	addi	sp,sp,32
	.cfi_def_cfa_register 2
	jr	ra
	.cfi_endproc
.LFE284:
	.size	_ZN7TwoWire11requestFromEii, .-_ZN7TwoWire11requestFromEii
	.align	1
	.globl	_ZN7TwoWire11requestFromEiii
	.type	_ZN7TwoWire11requestFromEiii, @function
_ZN7TwoWire11requestFromEiii:
.LFB285:
	.loc 3 274 1
	.cfi_startproc
	addi	sp,sp,-32
	.cfi_def_cfa_offset 32
	sw	ra,28(sp)
	sw	s0,24(sp)
	.cfi_offset 1, -4
	.cfi_offset 8, -8
	addi	s0,sp,32
	.cfi_def_cfa 8, 0
	sw	a0,-20(s0)
	sw	a1,-24(s0)
	sw	a2,-28(s0)
	sw	a3,-32(s0)
	.loc 3 275 21
	lw	a5,-24(s0)
	andi	a5,a5,0xff
	lw	a4,-28(s0)
	andi	a4,a4,0xff
	lw	a3,-32(s0)
	andi	a3,a3,0xff
	mv	a2,a4
	mv	a1,a5
	lw	a0,-20(s0)
	call	_ZN7TwoWire11requestFromEhhh
	mv	a5,a0
	.loc 3 276 1
	mv	a0,a5
	lw	ra,28(sp)
	.cfi_restore 1
	lw	s0,24(sp)
	.cfi_restore 8
	addi	sp,sp,32
	.cfi_def_cfa_register 2
	jr	ra
	.cfi_endproc
.LFE285:
	.size	_ZN7TwoWire11requestFromEiii, .-_ZN7TwoWire11requestFromEiii
	.align	1
	.globl	_ZN7TwoWire17beginTransmissionEh
	.type	_ZN7TwoWire17beginTransmissionEh, @function
_ZN7TwoWire17beginTransmissionEh:
.LFB286:
	.loc 3 280 1
	.cfi_startproc
	addi	sp,sp,-32
	.cfi_def_cfa_offset 32
	sw	s0,28(sp)
	.cfi_offset 8, -4
	addi	s0,sp,32
	.cfi_def_cfa 8, 0
	sw	a0,-20(s0)
	mv	a5,a1
	sb	a5,-21(s0)
	.loc 3 282 18
	lw	a5,-20(s0)
	li	a4,1
	sb	a4,100(a5)
	.loc 3 284 15
	lw	a5,-20(s0)
	lbu	a4,-21(s0)
	sb	a4,56(a5)
	.loc 3 286 19
	lw	a5,-20(s0)
	sw	zero,92(a5)
	.loc 3 287 20
	lw	a5,-20(s0)
	sw	zero,96(a5)
	.loc 3 288 1
	nop
	lw	s0,28(sp)
	.cfi_restore 8
	addi	sp,sp,32
	.cfi_def_cfa_register 2
	jr	ra
	.cfi_endproc
.LFE286:
	.size	_ZN7TwoWire17beginTransmissionEh, .-_ZN7TwoWire17beginTransmissionEh
	.align	1
	.globl	_ZN7TwoWire17beginTransmissionEi
	.type	_ZN7TwoWire17beginTransmissionEi, @function
_ZN7TwoWire17beginTransmissionEi:
.LFB287:
	.loc 3 291 1
	.cfi_startproc
	addi	sp,sp,-32
	.cfi_def_cfa_offset 32
	sw	ra,28(sp)
	sw	s0,24(sp)
	.cfi_offset 1, -4
	.cfi_offset 8, -8
	addi	s0,sp,32
	.cfi_def_cfa 8, 0
	sw	a0,-20(s0)
	sw	a1,-24(s0)
	.loc 3 292 22
	lw	a5,-24(s0)
	andi	a5,a5,0xff
	mv	a1,a5
	lw	a0,-20(s0)
	call	_ZN7TwoWire17beginTransmissionEh
	.loc 3 293 1
	nop
	lw	ra,28(sp)
	.cfi_restore 1
	lw	s0,24(sp)
	.cfi_restore 8
	addi	sp,sp,32
	.cfi_def_cfa_register 2
	jr	ra
	.cfi_endproc
.LFE287:
	.size	_ZN7TwoWire17beginTransmissionEi, .-_ZN7TwoWire17beginTransmissionEi
	.align	1
	.globl	_ZN7TwoWire15endTransmissionEh
	.type	_ZN7TwoWire15endTransmissionEh, @function
_ZN7TwoWire15endTransmissionEh:
.LFB288:
	.loc 3 316 1
	.cfi_startproc
	addi	sp,sp,-48
	.cfi_def_cfa_offset 48
	sw	ra,44(sp)
	sw	s0,40(sp)
	.cfi_offset 1, -4
	.cfi_offset 8, -8
	addi	s0,sp,48
	.cfi_def_cfa 8, 0
	sw	a0,-36(s0)
	mv	a5,a1
	sb	a5,-37(s0)
	.loc 3 318 28
	lw	a5,-36(s0)
	lbu	a1,56(a5)
	.loc 3 318 40
	lw	a5,-36(s0)
	addi	a2,a5,57
	.loc 3 318 28
	lw	a5,-36(s0)
	lw	a5,96(a5)
	lbu	a4,-37(s0)
	mv	a3,a5
	lw	a0,-36(s0)
	call	_ZN7TwoWire11twi_writeToEhPhjh
	mv	a5,a0
	.loc 3 318 74
	sb	a5,-17(s0)
	.loc 3 321 19
	lw	a5,-36(s0)
	sw	zero,92(a5)
	.loc 3 322 20
	lw	a5,-36(s0)
	sw	zero,96(a5)
	.loc 3 325 18
	lw	a5,-36(s0)
	sb	zero,100(a5)
	.loc 3 327 12
	lbu	a5,-17(s0)
	.loc 3 329 1
	mv	a0,a5
	lw	ra,44(sp)
	.cfi_restore 1
	lw	s0,40(sp)
	.cfi_restore 8
	addi	sp,sp,48
	.cfi_def_cfa_register 2
	jr	ra
	.cfi_endproc
.LFE288:
	.size	_ZN7TwoWire15endTransmissionEh, .-_ZN7TwoWire15endTransmissionEh
	.align	1
	.globl	_ZN7TwoWire15endTransmissionEv
	.type	_ZN7TwoWire15endTransmissionEv, @function
_ZN7TwoWire15endTransmissionEv:
.LFB289:
	.loc 3 332 1
	.cfi_startproc
	addi	sp,sp,-32
	.cfi_def_cfa_offset 32
	sw	ra,28(sp)
	sw	s0,24(sp)
	.cfi_offset 1, -4
	.cfi_offset 8, -8
	addi	s0,sp,32
	.cfi_def_cfa 8, 0
	sw	a0,-20(s0)
	.loc 3 333 27
	li	a1,1
	lw	a0,-20(s0)
	call	_ZN7TwoWire15endTransmissionEh
	mv	a5,a0
	.loc 3 334 1
	mv	a0,a5
	lw	ra,28(sp)
	.cfi_restore 1
	lw	s0,24(sp)
	.cfi_restore 8
	addi	sp,sp,32
	.cfi_def_cfa_register 2
	jr	ra
	.cfi_endproc
.LFE289:
	.size	_ZN7TwoWire15endTransmissionEv, .-_ZN7TwoWire15endTransmissionEv
	.align	1
	.globl	_ZN7TwoWire5writeEh
	.type	_ZN7TwoWire5writeEh, @function
_ZN7TwoWire5writeEh:
.LFB290:
	.loc 3 340 1
	.cfi_startproc
	addi	sp,sp,-32
	.cfi_def_cfa_offset 32
	sw	ra,28(sp)
	sw	s0,24(sp)
	.cfi_offset 1, -4
	.cfi_offset 8, -8
	addi	s0,sp,32
	.cfi_def_cfa 8, 0
	sw	a0,-20(s0)
	mv	a5,a1
	sb	a5,-21(s0)
	.loc 3 341 9
	lw	a5,-20(s0)
	lbu	a5,100(a5)
	.loc 3 341 5
	beqz	a5,.L47
	.loc 3 343 13
	lw	a5,-20(s0)
	lw	a4,96(a5)
	.loc 3 343 9
	li	a5,31
	bleu	a4,a5,.L48
	.loc 3 345 26
	lw	a5,-20(s0)
	li	a1,1
	mv	a0,a5
	call	_ZN5Print13setWriteErrorEi
	.loc 3 346 20
	li	a5,0
	j	.L49
.L48:
	.loc 3 348 18
	lw	a5,-20(s0)
	lw	a5,92(a5)
	.loc 3 348 33
	lbu	a4,-21(s0)
	lw	a3,-20(s0)
	add	a5,a3,a5
	sb	a4,57(a5)
	.loc 3 349 11
	lw	a5,-20(s0)
	lw	a5,92(a5)
	.loc 3 349 9
	addi	a4,a5,1
	lw	a5,-20(s0)
	sw	a4,92(a5)
	.loc 3 350 26
	lw	a5,-20(s0)
	lw	a4,92(a5)
	.loc 3 350 24
	lw	a5,-20(s0)
	sw	a4,96(a5)
	j	.L50
.L47:
	.loc 3 356 21
	addi	a5,s0,-21
	li	a2,1
	mv	a1,a5
	lw	a0,-20(s0)
	call	_ZN7TwoWire12twi_transmitEPKhh
.L50:
	.loc 3 358 12
	li	a5,1
.L49:
	.loc 3 359 1
	mv	a0,a5
	lw	ra,28(sp)
	.cfi_restore 1
	lw	s0,24(sp)
	.cfi_restore 8
	addi	sp,sp,32
	.cfi_def_cfa_register 2
	jr	ra
	.cfi_endproc
.LFE290:
	.size	_ZN7TwoWire5writeEh, .-_ZN7TwoWire5writeEh
	.align	1
	.globl	_ZN7TwoWire5writeEPKhj
	.type	_ZN7TwoWire5writeEPKhj, @function
_ZN7TwoWire5writeEPKhj:
.LFB291:
	.loc 3 365 1
	.cfi_startproc
	addi	sp,sp,-48
	.cfi_def_cfa_offset 48
	sw	ra,44(sp)
	sw	s0,40(sp)
	.cfi_offset 1, -4
	.cfi_offset 8, -8
	addi	s0,sp,48
	.cfi_def_cfa 8, 0
	sw	a0,-36(s0)
	sw	a1,-40(s0)
	sw	a2,-44(s0)
.LBB5:
	.loc 3 366 9
	lw	a5,-36(s0)
	lbu	a5,100(a5)
	.loc 3 366 5
	beqz	a5,.L52
.LBB6:
.LBB7:
	.loc 3 369 21
	sw	zero,-20(s0)
.L56:
	.loc 3 369 30 discriminator 1
	lw	a4,-20(s0)
	lw	a5,-44(s0)
	bgeu	a4,a5,.L57
	.loc 3 371 31
	lw	a5,-36(s0)
	lw	a5,0(a5)
	lw	a3,0(a5)
	.loc 3 371 30
	lw	a4,-40(s0)
	lw	a5,-20(s0)
	add	a5,a4,a5
	.loc 3 371 23
	lbu	a5,0(a5)
	mv	a1,a5
	lw	a0,-36(s0)
	jalr	a3
.LVL1:
	mv	a5,a0
	.loc 3 371 17
	seqz	a5,a5
	andi	a5,a5,0xff
	.loc 3 371 13
	beqz	a5,.L54
	.loc 3 373 24
	lw	a5,-20(s0)
	j	.L55
.L54:
	.loc 3 369 9 discriminator 2
	lw	a5,-20(s0)
	addi	a5,a5,1
	sw	a5,-20(s0)
	j	.L56
.L52:
.LBE7:
.LBE6:
	.loc 3 381 21
	lw	a5,-44(s0)
	andi	a5,a5,0xff
	mv	a2,a5
	lw	a1,-40(s0)
	lw	a0,-36(s0)
	call	_ZN7TwoWire12twi_transmitEPKhh
.L57:
.LBE5:
	.loc 3 383 12
	lw	a5,-44(s0)
.L55:
	.loc 3 384 1
	mv	a0,a5
	lw	ra,44(sp)
	.cfi_restore 1
	lw	s0,40(sp)
	.cfi_restore 8
	addi	sp,sp,48
	.cfi_def_cfa_register 2
	jr	ra
	.cfi_endproc
.LFE291:
	.size	_ZN7TwoWire5writeEPKhj, .-_ZN7TwoWire5writeEPKhj
	.align	1
	.globl	_ZN7TwoWire9availableEv
	.type	_ZN7TwoWire9availableEv, @function
_ZN7TwoWire9availableEv:
.LFB292:
	.loc 3 390 1
	.cfi_startproc
	addi	sp,sp,-32
	.cfi_def_cfa_offset 32
	sw	s0,28(sp)
	.cfi_offset 8, -4
	addi	s0,sp,32
	.cfi_def_cfa 8, 0
	sw	a0,-20(s0)
	.loc 3 391 12
	lw	a5,-20(s0)
	lw	a4,52(a5)
	.loc 3 391 29
	lw	a5,-20(s0)
	lw	a5,48(a5)
	.loc 3 391 27
	sub	a5,a4,a5
	.loc 3 392 1
	mv	a0,a5
	lw	s0,28(sp)
	.cfi_restore 8
	addi	sp,sp,32
	.cfi_def_cfa_register 2
	jr	ra
	.cfi_endproc
.LFE292:
	.size	_ZN7TwoWire9availableEv, .-_ZN7TwoWire9availableEv
	.align	1
	.globl	_ZN7TwoWire4readEv
	.type	_ZN7TwoWire4readEv, @function
_ZN7TwoWire4readEv:
.LFB293:
	.loc 3 398 1
	.cfi_startproc
	addi	sp,sp,-48
	.cfi_def_cfa_offset 48
	sw	s0,44(sp)
	.cfi_offset 8, -4
	addi	s0,sp,48
	.cfi_def_cfa 8, 0
	sw	a0,-36(s0)
	.loc 3 399 9
	li	a5,-1
	sw	a5,-20(s0)
	.loc 3 402 9
	lw	a5,-36(s0)
	lw	a4,48(a5)
	.loc 3 402 25
	lw	a5,-36(s0)
	lw	a5,52(a5)
	.loc 3 402 5
	bgeu	a4,a5,.L61
	.loc 3 404 26
	lw	a5,-36(s0)
	lw	a5,48(a5)
	.loc 3 404 39
	lw	a4,-36(s0)
	add	a5,a4,a5
	lbu	a5,16(a5)
	.loc 3 404 15
	sw	a5,-20(s0)
	.loc 3 405 11
	lw	a5,-36(s0)
	lw	a5,48(a5)
	.loc 3 405 9
	addi	a4,a5,1
	lw	a5,-36(s0)
	sw	a4,48(a5)
.L61:
	.loc 3 407 12
	lw	a5,-20(s0)
	.loc 3 408 1
	mv	a0,a5
	lw	s0,44(sp)
	.cfi_restore 8
	addi	sp,sp,48
	.cfi_def_cfa_register 2
	jr	ra
	.cfi_endproc
.LFE293:
	.size	_ZN7TwoWire4readEv, .-_ZN7TwoWire4readEv
	.align	1
	.globl	_ZN7TwoWire4peekEv
	.type	_ZN7TwoWire4peekEv, @function
_ZN7TwoWire4peekEv:
.LFB294:
	.loc 3 414 1
	.cfi_startproc
	addi	sp,sp,-48
	.cfi_def_cfa_offset 48
	sw	s0,44(sp)
	.cfi_offset 8, -4
	addi	s0,sp,48
	.cfi_def_cfa 8, 0
	sw	a0,-36(s0)
	.loc 3 415 9
	li	a5,-1
	sw	a5,-20(s0)
	.loc 3 416 9
	lw	a5,-36(s0)
	lw	a4,48(a5)
	.loc 3 416 25
	lw	a5,-36(s0)
	lw	a5,52(a5)
	.loc 3 416 5
	bgeu	a4,a5,.L64
	.loc 3 418 26
	lw	a5,-36(s0)
	lw	a5,48(a5)
	.loc 3 418 39
	lw	a4,-36(s0)
	add	a5,a4,a5
	lbu	a5,16(a5)
	.loc 3 418 15
	sw	a5,-20(s0)
.L64:
	.loc 3 420 12
	lw	a5,-20(s0)
	.loc 3 421 1
	mv	a0,a5
	lw	s0,44(sp)
	.cfi_restore 8
	addi	sp,sp,48
	.cfi_def_cfa_register 2
	jr	ra
	.cfi_endproc
.LFE294:
	.size	_ZN7TwoWire4peekEv, .-_ZN7TwoWire4peekEv
	.align	1
	.globl	_ZN7TwoWire5flushEv
	.type	_ZN7TwoWire5flushEv, @function
_ZN7TwoWire5flushEv:
.LFB295:
	.loc 3 424 1
	.cfi_startproc
	addi	sp,sp,-32
	.cfi_def_cfa_offset 32
	sw	s0,28(sp)
	.cfi_offset 8, -4
	addi	s0,sp,32
	.cfi_def_cfa 8, 0
	sw	a0,-20(s0)
	.loc 3 426 19
	lw	a5,-20(s0)
	sw	zero,48(a5)
	.loc 3 427 20
	lw	a5,-20(s0)
	sw	zero,52(a5)
	.loc 3 428 19
	lw	a5,-20(s0)
	sw	zero,92(a5)
	.loc 3 429 20
	lw	a5,-20(s0)
	sw	zero,96(a5)
	.loc 3 430 1
	nop
	lw	s0,28(sp)
	.cfi_restore 8
	addi	sp,sp,32
	.cfi_def_cfa_register 2
	jr	ra
	.cfi_endproc
.LFE295:
	.size	_ZN7TwoWire5flushEv, .-_ZN7TwoWire5flushEv
	.globl	Wire
	.bss
	.align	2
	.type	Wire, @object
	.size	Wire, 116
Wire:
	.zero	116
	.weak	_ZTV7TwoWire
	.section	.rodata._ZTV7TwoWire,"aG",@progbits,_ZTV7TwoWire,comdat
	.align	2
	.type	_ZTV7TwoWire, @object
	.size	_ZTV7TwoWire, 36
_ZTV7TwoWire:
	.word	0
	.word	_ZTI7TwoWire
	.word	_ZN7TwoWire5writeEh
	.word	_ZN7TwoWire5writeEPKhj
	.word	_ZN5Print17availableForWriteEv
	.word	_ZN7TwoWire5flushEv
	.word	_ZN7TwoWire9availableEv
	.word	_ZN7TwoWire4readEv
	.word	_ZN7TwoWire4peekEv
	.weak	_ZTV6Stream
	.section	.rodata._ZTV6Stream,"aG",@progbits,_ZTV6Stream,comdat
	.align	2
	.type	_ZTV6Stream, @object
	.size	_ZTV6Stream, 36
_ZTV6Stream:
	.word	0
	.word	_ZTI6Stream
	.word	__cxa_pure_virtual
	.word	_ZN5Print5writeEPKhj
	.word	_ZN5Print17availableForWriteEv
	.word	_ZN5Print5flushEv
	.word	__cxa_pure_virtual
	.word	__cxa_pure_virtual
	.word	__cxa_pure_virtual
	.weak	_ZTI7TwoWire
	.section	.rodata._ZTI7TwoWire,"aG",@progbits,_ZTI7TwoWire,comdat
	.align	2
	.type	_ZTI7TwoWire, @object
	.size	_ZTI7TwoWire, 12
_ZTI7TwoWire:
	.word	_ZTVN10__cxxabiv120__si_class_type_infoE+8
	.word	_ZTS7TwoWire
	.word	_ZTI6Stream
	.weak	_ZTS7TwoWire
	.section	.rodata._ZTS7TwoWire,"aG",@progbits,_ZTS7TwoWire,comdat
	.align	2
	.type	_ZTS7TwoWire, @object
	.size	_ZTS7TwoWire, 9
_ZTS7TwoWire:
	.string	"7TwoWire"
	.weak	_ZTI6Stream
	.section	.rodata._ZTI6Stream,"aG",@progbits,_ZTI6Stream,comdat
	.align	2
	.type	_ZTI6Stream, @object
	.size	_ZTI6Stream, 12
_ZTI6Stream:
	.word	_ZTVN10__cxxabiv120__si_class_type_infoE+8
	.word	_ZTS6Stream
	.word	_ZTI5Print
	.weak	_ZTS6Stream
	.section	.sdata2._ZTS6Stream,"aG",@progbits,_ZTS6Stream,comdat
	.align	2
	.type	_ZTS6Stream, @object
	.size	_ZTS6Stream, 8
_ZTS6Stream:
	.string	"6Stream"
	.text
	.align	1
	.type	_Z41__static_initialization_and_destruction_0ii, @function
_Z41__static_initialization_and_destruction_0ii:
.LFB300:
	.loc 3 487 13
	.cfi_startproc
	addi	sp,sp,-32
	.cfi_def_cfa_offset 32
	sw	ra,28(sp)
	sw	s0,24(sp)
	.cfi_offset 1, -4
	.cfi_offset 8, -8
	addi	s0,sp,32
	.cfi_def_cfa 8, 0
	sw	a0,-20(s0)
	sw	a1,-24(s0)
	.loc 3 487 13
	lw	a4,-20(s0)
	li	a5,1
	bne	a4,a5,.L69
	.loc 3 487 13 is_stmt 0 discriminator 1
	lw	a4,-24(s0)
	li	a5,65536
	addi	a5,a5,-1
	bne	a4,a5,.L69
	.loc 3 487 9 is_stmt 1 discriminator 3
	lla	a0,Wire
	call	_ZN7TwoWireC1Ev
.L69:
	.loc 3 487 13
	nop
	lw	ra,28(sp)
	.cfi_restore 1
	lw	s0,24(sp)
	.cfi_restore 8
	addi	sp,sp,32
	.cfi_def_cfa_register 2
	jr	ra
	.cfi_endproc
.LFE300:
	.size	_Z41__static_initialization_and_destruction_0ii, .-_Z41__static_initialization_and_destruction_0ii
	.align	1
	.type	_GLOBAL__sub_I__ZN7TwoWire12twi_readFromEhPhjh, @function
_GLOBAL__sub_I__ZN7TwoWire12twi_readFromEhPhjh:
.LFB301:
	.loc 3 487 13
	.cfi_startproc
	addi	sp,sp,-16
	.cfi_def_cfa_offset 16
	sw	ra,12(sp)
	sw	s0,8(sp)
	.cfi_offset 1, -4
	.cfi_offset 8, -8
	addi	s0,sp,16
	.cfi_def_cfa 8, 0
	.loc 3 487 13
	li	a5,65536
	addi	a1,a5,-1
	li	a0,1
	call	_Z41__static_initialization_and_destruction_0ii
	lw	ra,12(sp)
	.cfi_restore 1
	lw	s0,8(sp)
	.cfi_restore 8
	addi	sp,sp,16
	.cfi_def_cfa_register 2
	jr	ra
	.cfi_endproc
.LFE301:
	.size	_GLOBAL__sub_I__ZN7TwoWire12twi_readFromEhPhjh, .-_GLOBAL__sub_I__ZN7TwoWire12twi_readFromEhPhjh
	.section	.init_array,"aw"
	.align	2
	.word	_GLOBAL__sub_I__ZN7TwoWire12twi_readFromEhPhjh
	.text
.Letext0:
	.file 4 "c:\\rt-threadstudio\\repo\\extract\\toolchain_support_packages\\wch\\risc-v-gcc-wch\\8.2.0\\riscv-none-embed\\include\\c++\\8.2.0\\cstdlib"
	.file 5 "c:\\rt-threadstudio\\repo\\extract\\toolchain_support_packages\\wch\\risc-v-gcc-wch\\8.2.0\\riscv-none-embed\\include\\c++\\8.2.0\\bits\\std_abs.h"
	.file 6 "c:\\rt-threadstudio\\repo\\extract\\toolchain_support_packages\\wch\\risc-v-gcc-wch\\8.2.0\\riscv-none-embed\\include\\c++\\8.2.0\\cmath"
	.file 7 "c:\\rt-threadstudio\\repo\\extract\\toolchain_support_packages\\wch\\risc-v-gcc-wch\\8.2.0\\riscv-none-embed\\include\\c++\\8.2.0\\riscv-none-embed\\rv32imac\\ilp32\\bits\\c++config.h"
	.file 8 "c:\\rt-threadstudio\\repo\\extract\\toolchain_support_packages\\wch\\risc-v-gcc-wch\\8.2.0\\lib\\gcc\\riscv-none-embed\\8.2.0\\include\\stddef.h"
	.file 9 "c:\\rt-threadstudio\\repo\\extract\\toolchain_support_packages\\wch\\risc-v-gcc-wch\\8.2.0\\riscv-none-embed\\include\\machine\\_default_types.h"
	.file 10 "c:\\rt-threadstudio\\repo\\extract\\toolchain_support_packages\\wch\\risc-v-gcc-wch\\8.2.0\\riscv-none-embed\\include\\sys\\lock.h"
	.file 11 "c:\\rt-threadstudio\\repo\\extract\\toolchain_support_packages\\wch\\risc-v-gcc-wch\\8.2.0\\riscv-none-embed\\include\\sys\\_types.h"
	.file 12 "c:\\rt-threadstudio\\repo\\extract\\toolchain_support_packages\\wch\\risc-v-gcc-wch\\8.2.0\\riscv-none-embed\\include\\sys\\reent.h"
	.file 13 "c:\\rt-threadstudio\\repo\\extract\\toolchain_support_packages\\wch\\risc-v-gcc-wch\\8.2.0\\riscv-none-embed\\include\\stdlib.h"
	.file 14 "c:\\rt-threadstudio\\repo\\extract\\toolchain_support_packages\\wch\\risc-v-gcc-wch\\8.2.0\\riscv-none-embed\\include\\c++\\8.2.0\\stdlib.h"
	.file 15 "c:\\rt-threadstudio\\repo\\extract\\toolchain_support_packages\\wch\\risc-v-gcc-wch\\8.2.0\\riscv-none-embed\\include\\sys\\_stdint.h"
	.file 16 "c:\\rt-threadstudio\\repo\\extract\\toolchain_support_packages\\wch\\risc-v-gcc-wch\\8.2.0\\riscv-none-embed\\include\\sys\\types.h"
	.file 17 "C:\\RT-ThreadStudio\\workspace\\AQMS_LCD\\rt-thread\\include/rtdef.h"
	.file 18 "C:\\RT-ThreadStudio\\workspace\\AQMS_LCD\\rt-thread\\include/rtthread.h"
	.file 19 "C:\\RT-ThreadStudio\\workspace\\AQMS_LCD\\rt-thread\\components\\finsh/finsh.h"
	.file 20 "c:\\rt-threadstudio\\repo\\extract\\toolchain_support_packages\\wch\\risc-v-gcc-wch\\8.2.0\\riscv-none-embed\\include\\time.h"
	.file 21 "C:\\RT-ThreadStudio\\workspace\\AQMS_LCD\\rt-thread\\components\\drivers\\include/drivers/i2c.h"
	.file 22 "c:\\rt-threadstudio\\repo\\extract\\toolchain_support_packages\\wch\\risc-v-gcc-wch\\8.2.0\\riscv-none-embed\\include\\ctype.h"
	.file 23 "C:\\RT-ThreadStudio\\workspace\\AQMS_LCD\\packages\\RTduino-latest\\core/WString.h"
	.file 24 "C:\\RT-ThreadStudio\\workspace\\AQMS_LCD\\Libraries\\ch32v20x_libraries\\bmsis\\include/system_ch32v20x.h"
	.file 25 "C:\\RT-ThreadStudio\\workspace\\AQMS_LCD\\board/board.h"
	.file 26 "c:\\rt-threadstudio\\repo\\extract\\toolchain_support_packages\\wch\\risc-v-gcc-wch\\8.2.0\\riscv-none-embed\\include\\c++\\8.2.0\\math.h"
	.file 27 "c:\\rt-threadstudio\\repo\\extract\\toolchain_support_packages\\wch\\risc-v-gcc-wch\\8.2.0\\riscv-none-embed\\include\\math.h"
	.file 28 "C:\\RT-ThreadStudio\\workspace\\AQMS_LCD\\packages\\RTduino-latest\\core/HardwareSerial.h"
	.file 29 "../packages/RTduino-latest/libraries/buildin/Wire/Wire.h"
	.file 30 "<built-in>"