	.file	"at_device_esp8266.c"
	.option nopic
	.text
.Ltext0:
	.cfi_sections	.debug_frame
	.section	.rodata
	.align	2
.LC0:
	.string	"%*[^\"]\"%[^\"]\""
	.align	2
.LC1:
	.string	"+CIPDNS_CUR:%s"
	.align	2
.LC2:
	.string	"[E/at.dev.esp] "
	.align	2
.LC3:
	.string	"no memory for resp create."
	.align	2
.LC4:
	.string	"\n"
	.align	2
.LC5:
	.string	"AT+CIFSR"
	.align	2
.LC6:
	.string	"STAMAC"
	.align	2
.LC7:
	.string	"%s device parse \"AT+CIFSR\" cmd error."
	.align	2
.LC8:
	.string	"AT+CIPSTA?"
	.align	2
.LC9:
	.string	"%s device send \"AT+CIPSTA?\" cmd error."
	.align	2
.LC10:
	.string	"ip"
	.align	2
.LC11:
	.string	"gateway"
	.align	2
.LC12:
	.string	"netmask"
	.align	2
.LC13:
	.string	"%s device prase \"AT+CIPSTA?\" cmd error."
	.align	2
.LC14:
	.string	"%x:%x:%x:%x:%x:%x"
	.align	2
.LC15:
	.string	"AT+CIPDNS_CUR?"
	.align	2
.LC16:
	.string	"[W/at.dev.esp] "
	.align	2
.LC17:
	.string	"please check and update %s device firmware to support the \"AT+CIPDNS_CUR?\" cmd."
	.align	2
.LC18:
	.string	"%d device prase \"AT+CIPDNS_CUR?\" cmd error."
	.align	2
.LC19:
	.string	"255.255.255.255"
	.align	2
.LC20:
	.string	"114.114.114.114"
	.align	2
.LC21:
	.string	"AT+CWDHCP_CUR?"
	.align	2
.LC22:
	.string	"+CWDHCP_CUR:%d"
	.align	2
.LC23:
	.string	"+CWDHCP_CUR:"
	.align	2
.LC24:
	.string	"%s device prase DHCP status error."
	.text
	.align	1
	.type	esp8266_get_netdev_info, @function
esp8266_get_netdev_info:
.LFB28:
	.file 1 "../packages/at_device-latest/class/esp8266/at_device_esp8266.c"
	.loc 1 32 1
	.cfi_startproc
	addi	sp,sp,-288
	.cfi_def_cfa_offset 288
	sw	ra,284(sp)
	sw	s0,280(sp)
	.cfi_offset 1, -4
	.cfi_offset 8, -8
	addi	s0,sp,288
	.cfi_def_cfa 8, 0
	sw	a0,-276(s0)
	sw	a1,-280(s0)
	.loc 1 37 19
	sw	zero,-24(s0)
	.loc 1 38 10
	sw	zero,-76(s0)
	sw	zero,-72(s0)
	sw	zero,-68(s0)
	sw	zero,-64(s0)
	sw	zero,-60(s0)
	sw	zero,-56(s0)
	sw	zero,-52(s0)
	sw	zero,-48(s0)
	.loc 1 38 24
	sw	zero,-108(s0)
	sw	zero,-104(s0)
	sw	zero,-100(s0)
	sw	zero,-96(s0)
	sw	zero,-92(s0)
	sw	zero,-88(s0)
	sw	zero,-84(s0)
	sw	zero,-80(s0)
	.loc 1 39 10
	sw	zero,-140(s0)
	sw	zero,-136(s0)
	sw	zero,-132(s0)
	sw	zero,-128(s0)
	sw	zero,-124(s0)
	sw	zero,-120(s0)
	sw	zero,-116(s0)
	sw	zero,-112(s0)
	.loc 1 39 29
	sw	zero,-172(s0)
	sw	zero,-168(s0)
	sw	zero,-164(s0)
	sw	zero,-160(s0)
	sw	zero,-156(s0)
	sw	zero,-152(s0)
	sw	zero,-148(s0)
	sw	zero,-144(s0)
	.loc 1 40 10
	sw	zero,-204(s0)
	sw	zero,-200(s0)
	sw	zero,-196(s0)
	sw	zero,-192(s0)
	sw	zero,-188(s0)
	sw	zero,-184(s0)
	sw	zero,-180(s0)
	sw	zero,-176(s0)
	.loc 1 40 33
	sw	zero,-236(s0)
	sw	zero,-232(s0)
	sw	zero,-228(s0)
	sw	zero,-224(s0)
	sw	zero,-220(s0)
	sw	zero,-216(s0)
	sw	zero,-212(s0)
	sw	zero,-208(s0)
	.loc 1 41 17
	lla	a5,.LC0
	sw	a5,-28(s0)
	.loc 1 42 17
	lla	a5,.LC1
	sw	a5,-32(s0)
	.loc 1 44 17
	sw	zero,-264(s0)
	sw	zero,-260(s0)
	sw	zero,-256(s0)
	sw	zero,-252(s0)
	sw	zero,-248(s0)
	sw	zero,-244(s0)
	.loc 1 45 17
	sw	zero,-20(s0)
	.loc 1 46 17
	sw	zero,-268(s0)
	.loc 1 47 23
	lw	a5,-280(s0)
	sw	a5,-36(s0)
	.loc 1 48 20
	lw	a5,-36(s0)
	lw	a5,20(a5)
	sw	a5,-40(s0)
	.loc 1 49 23
	lw	a5,-36(s0)
	lw	a5,16(a5)
	sw	a5,-44(s0)
	.loc 1 51 8
	lw	a5,-276(s0)
	beqz	a5,.L2
	.loc 1 53 9
	lw	a0,-276(s0)
	call	rt_free
.L2:
	.loc 1 56 35
	li	a0,300
	call	rt_tick_from_millisecond
	mv	a5,a0
	.loc 1 56 12
	mv	a2,a5
	li	a1,0
	li	a0,512
	call	at_create_resp
	sw	a0,-24(s0)
	.loc 1 57 8
	lw	a5,-24(s0)
	bnez	a5,.L3
	.loc 1 59 14
	lla	a0,.LC2
	call	rt_kprintf
	.loc 1 59 57
	lla	a0,.LC3
	call	rt_kprintf
	.loc 1 59 99
	lla	a0,.LC4
	call	rt_kprintf
	j	.L1
.L3:
	.loc 1 64 9
	lla	a2,.LC5
	lw	a1,-24(s0)
	lw	a0,-44(s0)
	call	at_obj_exec_cmd
	mv	a5,a0
	.loc 1 64 8
	bltz	a5,.L21
	.loc 1 69 9
	addi	a5,s0,-108
	mv	a3,a5
	lw	a2,-28(s0)
	lla	a1,.LC6
	lw	a0,-24(s0)
	call	at_resp_parse_line_args_by_kw
	mv	a5,a0
	.loc 1 69 8
	bgtz	a5,.L7
	.loc 1 71 14
	lla	a0,.LC2
	call	rt_kprintf
	.loc 1 71 117
	lw	a5,-36(s0)
	.loc 1 71 57
	mv	a1,a5
	lla	a0,.LC7
	call	rt_kprintf
	.loc 1 71 126
	lla	a0,.LC4
	call	rt_kprintf
	.loc 1 72 9
	j	.L6
.L7:
	.loc 1 76 9
	lla	a2,.LC8
	lw	a1,-24(s0)
	lw	a0,-44(s0)
	call	at_obj_exec_cmd
	mv	a5,a0
	.loc 1 76 8
	bgez	a5,.L8
	.loc 1 78 14
	lla	a0,.LC2
	call	rt_kprintf
	.loc 1 78 118
	lw	a5,-36(s0)
	.loc 1 78 57
	mv	a1,a5
	lla	a0,.LC9
	call	rt_kprintf
	.loc 1 78 127
	lla	a0,.LC4
	call	rt_kprintf
	.loc 1 79 9
	j	.L6
.L8:
	.loc 1 82 9
	addi	a5,s0,-76
	mv	a3,a5
	lw	a2,-28(s0)
	lla	a1,.LC10
	lw	a0,-24(s0)
	call	at_resp_parse_line_args_by_kw
	mv	a5,a0
	.loc 1 82 8
	blez	a5,.L9
	.loc 1 83 13 discriminator 1
	addi	a5,s0,-140
	mv	a3,a5
	lw	a2,-28(s0)
	lla	a1,.LC11
	lw	a0,-24(s0)
	call	at_resp_parse_line_args_by_kw
	mv	a5,a0
	.loc 1 82 71 discriminator 1
	blez	a5,.L9
	.loc 1 84 13
	addi	a5,s0,-172
	mv	a3,a5
	lw	a2,-28(s0)
	lla	a1,.LC12
	lw	a0,-24(s0)
	call	at_resp_parse_line_args_by_kw
	mv	a5,a0
	.loc 1 83 85
	bgtz	a5,.L10
.L9:
	.loc 1 86 14
	lla	a0,.LC2
	call	rt_kprintf
	.loc 1 86 119
	lw	a5,-36(s0)
	.loc 1 86 57
	mv	a1,a5
	lla	a0,.LC13
	call	rt_kprintf
	.loc 1 86 128
	lla	a0,.LC4
	call	rt_kprintf
	.loc 1 87 9
	j	.L6
.L10:
	.loc 1 91 5
	addi	a4,s0,-240
	addi	a5,s0,-140
	mv	a1,a4
	mv	a0,a5
	call	netdev_ip4addr_aton
	.loc 1 92 5
	addi	a5,s0,-240
	mv	a1,a5
	lw	a0,-40(s0)
	call	netdev_low_level_set_gw
	.loc 1 93 5
	addi	a4,s0,-240
	addi	a5,s0,-172
	mv	a1,a4
	mv	a0,a5
	call	netdev_ip4addr_aton
	.loc 1 94 5
	addi	a5,s0,-240
	mv	a1,a5
	lw	a0,-40(s0)
	call	netdev_low_level_set_netmask
	.loc 1 95 5
	addi	a4,s0,-240
	addi	a5,s0,-76
	mv	a1,a4
	mv	a0,a5
	call	netdev_ip4addr_aton
	.loc 1 96 5
	addi	a5,s0,-240
	mv	a1,a5
	lw	a0,-40(s0)
	call	netdev_low_level_set_ipaddr
	.loc 1 97 5
	addi	a5,s0,-264
	addi	a7,a5,20
	addi	a5,s0,-264
	addi	a6,a5,16
	addi	a5,s0,-264
	addi	a1,a5,12
	addi	a5,s0,-264
	addi	a4,a5,8
	addi	a5,s0,-264
	addi	a3,a5,4
	addi	a2,s0,-264
	addi	a0,s0,-108
	mv	a5,a1
	lla	a1,.LC14
	call	sscanf
	.loc 1 99 14
	sw	zero,-20(s0)
	.loc 1 99 5
	j	.L11
.L12:
	.loc 1 101 39 discriminator 3
	lw	a5,-20(s0)
	slli	a5,a5,2
	addi	a4,s0,-16
	add	a5,a4,a5
	lw	a5,-248(a5)
	.loc 1 101 29 discriminator 3
	andi	a4,a5,0xff
	lw	a3,-40(s0)
	lw	a5,-20(s0)
	add	a5,a3,a5
	sb	a4,33(a5)
	.loc 1 99 48 discriminator 3
	lw	a5,-20(s0)
	addi	a5,a5,1
	sw	a5,-20(s0)
.L11:
	.loc 1 99 31 discriminator 1
	lw	a5,-40(s0)
	lbu	a5,32(a5)
	mv	a4,a5
	.loc 1 99 5 discriminator 1
	lw	a5,-20(s0)
	bltu	a5,a4,.L12
	.loc 1 105 9
	lw	a5,-36(s0)
	lw	a5,16(a5)
	lla	a2,.LC15
	lw	a1,-24(s0)
	mv	a0,a5
	call	at_obj_exec_cmd
	mv	a5,a0
	.loc 1 105 8
	bgez	a5,.L13
	.loc 1 107 14
	lla	a0,.LC16
	call	rt_kprintf
	.loc 1 107 159
	lw	a5,-36(s0)
	.loc 1 107 57
	mv	a1,a5
	lla	a0,.LC17
	call	rt_kprintf
	.loc 1 107 168
	lla	a0,.LC4
	call	rt_kprintf
	.loc 1 108 9
	j	.L6
.L13:
	.loc 1 111 9
	addi	a5,s0,-204
	mv	a3,a5
	lw	a2,-32(s0)
	li	a1,1
	lw	a0,-24(s0)
	call	at_resp_parse_line_args
	mv	a5,a0
	.loc 1 111 8
	bgtz	a5,.L14
	.loc 1 112 13 discriminator 1
	addi	a5,s0,-236
	mv	a3,a5
	lw	a2,-32(s0)
	li	a1,2
	lw	a0,-24(s0)
	call	at_resp_parse_line_args
	mv	a5,a0
	.loc 1 111 70 discriminator 1
	bgtz	a5,.L14
	.loc 1 114 14
	lla	a0,.LC2
	call	rt_kprintf
	.loc 1 114 123
	lw	a5,-36(s0)
	.loc 1 114 57
	mv	a1,a5
	lla	a0,.LC18
	call	rt_kprintf
	.loc 1 114 132
	lla	a0,.LC4
	call	rt_kprintf
	.loc 1 115 9
	j	.L6
.L14:
	.loc 1 119 9
	addi	a5,s0,-204
	mv	a0,a5
	call	rt_strlen
	mv	a5,a0
	.loc 1 119 8
	beqz	a5,.L15
	.loc 1 120 13 discriminator 1
	lla	a0,.LC19
	call	rt_strlen
	mv	a4,a0
	addi	a5,s0,-204
	mv	a2,a4
	lla	a1,.LC19
	mv	a0,a5
	call	rt_strncmp
	mv	a5,a0
	.loc 1 119 36 discriminator 1
	beqz	a5,.L15
	.loc 1 122 9
	addi	a4,s0,-240
	addi	a5,s0,-204
	mv	a1,a4
	mv	a0,a5
	call	netdev_ip4addr_aton
	.loc 1 123 9
	addi	a5,s0,-240
	mv	a2,a5
	li	a1,0
	lw	a0,-40(s0)
	call	netdev_low_level_set_dns_server
	j	.L16
.L15:
	.loc 1 127 9
	addi	a5,s0,-240
	mv	a1,a5
	lla	a0,.LC20
	call	netdev_ip4addr_aton
	.loc 1 128 9
	addi	a5,s0,-240
	mv	a2,a5
	li	a1,0
	lw	a0,-40(s0)
	call	esp8266_netdev_set_dns_server
.L16:
	.loc 1 132 9
	addi	a5,s0,-236
	mv	a0,a5
	call	rt_strlen
	mv	a5,a0
	.loc 1 132 8
	beqz	a5,.L17
	.loc 1 134 9
	addi	a4,s0,-240
	addi	a5,s0,-236
	mv	a1,a4
	mv	a0,a5
	call	netdev_ip4addr_aton
	.loc 1 135 9
	addi	a5,s0,-240
	mv	a2,a5
	li	a1,1
	lw	a0,-40(s0)
	call	netdev_low_level_set_dns_server
.L17:
	.loc 1 139 9
	lla	a2,.LC21
	lw	a1,-24(s0)
	lw	a0,-44(s0)
	call	at_obj_exec_cmd
	mv	a5,a0
	.loc 1 139 8
	bltz	a5,.L22
	.loc 1 145 9
	addi	a5,s0,-268
	mv	a3,a5
	lla	a2,.LC22
	lla	a1,.LC23
	lw	a0,-24(s0)
	call	at_resp_parse_line_args_by_kw
	mv	a5,a0
	.loc 1 145 8
	bgez	a5,.L19
	.loc 1 147 14
	lla	a0,.LC2
	call	rt_kprintf
	.loc 1 147 112
	lw	a5,-36(s0)
	.loc 1 147 57
	mv	a1,a5
	lla	a0,.LC24
	call	rt_kprintf
	.loc 1 147 121
	lla	a0,.LC4
	call	rt_kprintf
	.loc 1 148 9
	j	.L6
.L19:
	.loc 1 152 67
	lw	a5,-268(s0)
	srli	a5,a5,1
	.loc 1 152 5
	andi	a5,a5,1
	mv	a1,a5
	lw	a0,-40(s0)
	call	netdev_low_level_set_dhcp_status
	j	.L6
.L21:
	.loc 1 66 9
	nop
	j	.L6
.L22:
	.loc 1 141 9
	nop
.L6:
	.loc 1 155 8
	lw	a5,-24(s0)
	beqz	a5,.L1
	.loc 1 157 9
	lw	a0,-24(s0)
	call	at_delete_resp
.L1:
	.loc 1 159 1
	lw	ra,284(sp)
	.cfi_restore 1
	lw	s0,280(sp)
	.cfi_restore 8
	addi	sp,sp,288
	.cfi_def_cfa_register 2
	jr	ra
	.cfi_endproc
.LFE28:
	.size	esp8266_get_netdev_info, .-esp8266_get_netdev_info
	.section	.rodata
	.align	2
.LC25:
	.string	"get device(%s) failed."
	.text
	.align	1
	.type	esp8266_netdev_set_up, @function
esp8266_netdev_set_up:
.LFB29:
	.loc 1 164 1
	.cfi_startproc
	addi	sp,sp,-48
	.cfi_def_cfa_offset 48
	sw	ra,44(sp)
	sw	s0,40(sp)
	.cfi_offset 1, -4
	.cfi_offset 8, -8
	addi	s0,sp,48
	.cfi_def_cfa 8, 0
	sw	a0,-36(s0)
	.loc 1 165 23
	sw	zero,-20(s0)
	.loc 1 167 48
	lw	a5,-36(s0)
	addi	a5,a5,4
	.loc 1 167 14
	mv	a1,a5
	li	a0,2
	call	at_device_get_by_name
	sw	a0,-20(s0)
	.loc 1 168 8
	lw	a5,-20(s0)
	bnez	a5,.L24
	.loc 1 170 14
	lla	a0,.LC2
	call	rt_kprintf
	.loc 1 170 100
	lw	a5,-36(s0)
	addi	a5,a5,4
	.loc 1 170 57
	mv	a1,a5
	lla	a0,.LC25
	call	rt_kprintf
	.loc 1 170 109
	lla	a0,.LC4
	call	rt_kprintf
	.loc 1 171 16
	li	a5,-1
	j	.L25
.L24:
	.loc 1 174 15
	lw	a5,-20(s0)
	lw	a5,8(a5)
	.loc 1 174 8
	bnez	a5,.L26
	.loc 1 176 9
	lw	a0,-20(s0)
	call	esp8266_net_init
	.loc 1 177 9
	li	a1,1
	lw	a0,-36(s0)
	call	netdev_low_level_set_status
.L26:
	.loc 1 181 12
	li	a5,0
.L25:
	.loc 1 182 1
	mv	a0,a5
	lw	ra,44(sp)
	.cfi_restore 1
	lw	s0,40(sp)
	.cfi_restore 8
	addi	sp,sp,48
	.cfi_def_cfa_register 2
	jr	ra
	.cfi_endproc
.LFE29:
	.size	esp8266_netdev_set_up, .-esp8266_netdev_set_up
	.section	.rodata
	.align	2
.LC26:
	.string	"get device by netdev(%s) failed."
	.text
	.align	1
	.type	esp8266_netdev_set_down, @function
esp8266_netdev_set_down:
.LFB30:
	.loc 1 185 1
	.cfi_startproc
	addi	sp,sp,-48
	.cfi_def_cfa_offset 48
	sw	ra,44(sp)
	sw	s0,40(sp)
	.cfi_offset 1, -4
	.cfi_offset 8, -8
	addi	s0,sp,48
	.cfi_def_cfa 8, 0
	sw	a0,-36(s0)
	.loc 1 186 23
	sw	zero,-20(s0)
	.loc 1 188 48
	lw	a5,-36(s0)
	addi	a5,a5,4
	.loc 1 188 14
	mv	a1,a5
	li	a0,2
	call	at_device_get_by_name
	sw	a0,-20(s0)
	.loc 1 189 8
	lw	a5,-20(s0)
	bnez	a5,.L28
	.loc 1 191 14
	lla	a0,.LC2
	call	rt_kprintf
	.loc 1 191 110
	lw	a5,-36(s0)
	addi	a5,a5,4
	.loc 1 191 57
	mv	a1,a5
	lla	a0,.LC26
	call	rt_kprintf
	.loc 1 191 119
	lla	a0,.LC4
	call	rt_kprintf
	.loc 1 192 16
	li	a5,-1
	j	.L29
.L28:
	.loc 1 195 15
	lw	a5,-20(s0)
	lw	a4,8(a5)
	.loc 1 195 8
	li	a5,1
	bne	a4,a5,.L30
	.loc 1 197 25
	lw	a5,-20(s0)
	sw	zero,8(a5)
	.loc 1 198 9
	li	a1,0
	lw	a0,-36(s0)
	call	netdev_low_level_set_status
.L30:
	.loc 1 202 12
	li	a5,0
.L29:
	.loc 1 203 1
	mv	a0,a5
	lw	ra,44(sp)
	.cfi_restore 1
	lw	s0,40(sp)
	.cfi_restore 8
	addi	sp,sp,48
	.cfi_def_cfa_register 2
	jr	ra
	.cfi_endproc
.LFE30:
	.size	esp8266_netdev_set_down, .-esp8266_netdev_set_down
	.section	.rodata
	.align	2
.LC27:
	.string	"netdev"
	.align	2
.LC28:
	.string	"ip_addr || netmask || gw"
	.align	2
.LC29:
	.string	"AT+CIPSTA_CUR=\"%s\",\"%s\",\"%s\""
	.align	2
.LC30:
	.string	"%s device set address failed."
	.text
	.align	1
	.type	esp8266_netdev_set_addr_info, @function
esp8266_netdev_set_addr_info:
.LFB31:
	.loc 1 206 1
	.cfi_startproc
	addi	sp,sp,-96
	.cfi_def_cfa_offset 96
	sw	ra,92(sp)
	sw	s0,88(sp)
	.cfi_offset 1, -4
	.cfi_offset 8, -8
	addi	s0,sp,96
	.cfi_def_cfa 8, 0
	sw	a0,-84(s0)
	sw	a1,-88(s0)
	sw	a2,-92(s0)
	sw	a3,-96(s0)
	.loc 1 210 9
	sw	zero,-20(s0)
	.loc 1 211 19
	sw	zero,-24(s0)
	.loc 1 212 23
	sw	zero,-28(s0)
	.loc 1 213 10
	sw	zero,-44(s0)
	sw	zero,-40(s0)
	sw	zero,-36(s0)
	sw	zero,-32(s0)
	.loc 1 214 10
	sw	zero,-60(s0)
	sw	zero,-56(s0)
	sw	zero,-52(s0)
	sw	zero,-48(s0)
	.loc 1 215 10
	sw	zero,-76(s0)
	sw	zero,-72(s0)
	sw	zero,-68(s0)
	sw	zero,-64(s0)
	.loc 1 217 8
	lw	a5,-84(s0)
	bnez	a5,.L32
	.loc 1 217 22 discriminator 1
	li	a2,217
	lla	a1,__FUNCTION__.5328
	lla	a0,.LC27
	call	rt_assert_handler
.L32:
	.loc 1 218 8
	lw	a5,-88(s0)
	bnez	a5,.L33
	.loc 1 218 19 discriminator 1
	lw	a5,-92(s0)
	bnez	a5,.L33
	.loc 1 218 9 discriminator 2
	lw	a5,-96(s0)
	bnez	a5,.L33
	.loc 1 218 40 discriminator 3
	li	a2,218
	lla	a1,__FUNCTION__.5328
	lla	a0,.LC28
	call	rt_assert_handler
.L33:
	.loc 1 220 48
	lw	a5,-84(s0)
	addi	a5,a5,4
	.loc 1 220 14
	mv	a1,a5
	li	a0,2
	call	at_device_get_by_name
	sw	a0,-28(s0)
	.loc 1 221 8
	lw	a5,-28(s0)
	bnez	a5,.L34
	.loc 1 223 14
	lla	a0,.LC2
	call	rt_kprintf
	.loc 1 223 100
	lw	a5,-84(s0)
	addi	a5,a5,4
	.loc 1 223 57
	mv	a1,a5
	lla	a0,.LC25
	call	rt_kprintf
	.loc 1 223 109
	lla	a0,.LC4
	call	rt_kprintf
	.loc 1 224 16
	li	a5,-1
	j	.L48
.L34:
	.loc 1 227 35
	li	a0,300
	call	rt_tick_from_millisecond
	mv	a5,a0
	.loc 1 227 12
	mv	a2,a5
	li	a1,0
	li	a0,128
	call	at_create_resp
	sw	a0,-24(s0)
	.loc 1 228 8
	lw	a5,-24(s0)
	bnez	a5,.L36
	.loc 1 230 14
	lla	a0,.LC2
	call	rt_kprintf
	.loc 1 230 57
	lla	a0,.LC3
	call	rt_kprintf
	.loc 1 230 99
	lla	a0,.LC4
	call	rt_kprintf
	.loc 1 231 16
	li	a5,-5
	sw	a5,-20(s0)
	.loc 1 232 9
	j	.L37
.L36:
	.loc 1 236 8
	lw	a5,-88(s0)
	beqz	a5,.L38
	.loc 1 237 27
	lw	a0,-88(s0)
	call	netdev_ip4addr_ntoa
	mv	a4,a0
	.loc 1 237 9
	addi	a5,s0,-44
	li	a2,16
	mv	a1,a4
	mv	a0,a5
	call	rt_memcpy
	j	.L39
.L38:
	.loc 1 239 66
	lw	a5,-84(s0)
	addi	a5,a5,12
	.loc 1 239 27
	mv	a0,a5
	call	netdev_ip4addr_ntoa
	mv	a4,a0
	.loc 1 239 9
	addi	a5,s0,-44
	li	a2,16
	mv	a1,a4
	mv	a0,a5
	call	rt_memcpy
.L39:
	.loc 1 241 8
	lw	a5,-96(s0)
	beqz	a5,.L40
	.loc 1 242 27
	lw	a0,-96(s0)
	call	netdev_ip4addr_ntoa
	mv	a4,a0
	.loc 1 242 9
	addi	a5,s0,-60
	li	a2,16
	mv	a1,a4
	mv	a0,a5
	call	rt_memcpy
	j	.L41
.L40:
	.loc 1 244 66
	lw	a5,-84(s0)
	addi	a5,a5,20
	.loc 1 244 27
	mv	a0,a5
	call	netdev_ip4addr_ntoa
	mv	a4,a0
	.loc 1 244 9
	addi	a5,s0,-60
	li	a2,16
	mv	a1,a4
	mv	a0,a5
	call	rt_memcpy
.L41:
	.loc 1 246 8
	lw	a5,-92(s0)
	beqz	a5,.L42
	.loc 1 247 32
	lw	a0,-92(s0)
	call	netdev_ip4addr_ntoa
	mv	a4,a0
	.loc 1 247 9
	addi	a5,s0,-76
	li	a2,16
	mv	a1,a4
	mv	a0,a5
	call	rt_memcpy
	j	.L43
.L42:
	.loc 1 249 71
	lw	a5,-84(s0)
	addi	a5,a5,16
	.loc 1 249 32
	mv	a0,a5
	call	netdev_ip4addr_ntoa
	mv	a4,a0
	.loc 1 249 9
	addi	a5,s0,-76
	li	a2,16
	mv	a1,a4
	mv	a0,a5
	call	rt_memcpy
.L43:
	.loc 1 252 9
	lw	a5,-28(s0)
	lw	a0,16(a5)
	addi	a5,s0,-76
	addi	a4,s0,-60
	addi	a3,s0,-44
	lla	a2,.LC29
	lw	a1,-24(s0)
	call	at_obj_exec_cmd
	mv	a5,a0
	.loc 1 252 8
	bgez	a5,.L44
	.loc 1 255 14
	lla	a0,.LC2
	call	rt_kprintf
	.loc 1 255 107
	lw	a5,-28(s0)
	.loc 1 255 57
	mv	a1,a5
	lla	a0,.LC30
	call	rt_kprintf
	.loc 1 255 116
	lla	a0,.LC4
	call	rt_kprintf
	.loc 1 256 16
	li	a5,-1
	sw	a5,-20(s0)
	j	.L37
.L44:
	.loc 1 261 12
	lw	a5,-88(s0)
	beqz	a5,.L45
	.loc 1 262 13
	lw	a1,-88(s0)
	lw	a0,-84(s0)
	call	netdev_low_level_set_ipaddr
.L45:
	.loc 1 264 12
	lw	a5,-96(s0)
	beqz	a5,.L46
	.loc 1 265 13
	lw	a1,-96(s0)
	lw	a0,-84(s0)
	call	netdev_low_level_set_gw
.L46:
	.loc 1 267 12
	lw	a5,-92(s0)
	beqz	a5,.L49
	.loc 1 268 13
	lw	a1,-92(s0)
	lw	a0,-84(s0)
	call	netdev_low_level_set_netmask
	j	.L37
.L49:
	.loc 1 273 1
	nop
.L37:
	.loc 1 274 8
	lw	a5,-24(s0)
	beqz	a5,.L47
	.loc 1 276 9
	lw	a0,-24(s0)
	call	at_delete_resp
.L47:
	.loc 1 279 12
	lw	a5,-20(s0)
.L48:
	.loc 1 280 1 discriminator 1
	mv	a0,a5
	lw	ra,92(sp)
	.cfi_restore 1
	lw	s0,88(sp)
	.cfi_restore 8
	addi	sp,sp,96
	.cfi_def_cfa_register 2
	jr	ra
	.cfi_endproc
.LFE31:
	.size	esp8266_netdev_set_addr_info, .-esp8266_netdev_set_addr_info
	.section	.rodata
	.align	2
.LC31:
	.string	"dns_server"
	.align	2
.LC32:
	.string	"AT+CIPDNS_CUR=1,\"%s\""
	.align	2
.LC33:
	.string	"%s device set DNS failed."
	.text
	.align	1
	.type	esp8266_netdev_set_dns_server, @function
esp8266_netdev_set_dns_server:
.LFB32:
	.loc 1 283 1
	.cfi_startproc
	addi	sp,sp,-48
	.cfi_def_cfa_offset 48
	sw	ra,44(sp)
	sw	s0,40(sp)
	sw	s1,36(sp)
	.cfi_offset 1, -4
	.cfi_offset 8, -8
	.cfi_offset 9, -12
	addi	s0,sp,48
	.cfi_def_cfa 8, 0
	sw	a0,-36(s0)
	mv	a5,a1
	sw	a2,-44(s0)
	sb	a5,-37(s0)
	.loc 1 286 9
	sw	zero,-20(s0)
	.loc 1 287 19
	sw	zero,-24(s0)
	.loc 1 288 23
	sw	zero,-28(s0)
	.loc 1 290 8
	lw	a5,-36(s0)
	bnez	a5,.L51
	.loc 1 290 22 discriminator 1
	li	a2,290
	lla	a1,__FUNCTION__.5338
	lla	a0,.LC27
	call	rt_assert_handler
.L51:
	.loc 1 291 8
	lw	a5,-44(s0)
	bnez	a5,.L52
	.loc 1 291 26 discriminator 1
	li	a2,291
	lla	a1,__FUNCTION__.5338
	lla	a0,.LC31
	call	rt_assert_handler
.L52:
	.loc 1 293 48
	lw	a5,-36(s0)
	addi	a5,a5,4
	.loc 1 293 14
	mv	a1,a5
	li	a0,2
	call	at_device_get_by_name
	sw	a0,-28(s0)
	.loc 1 294 8
	lw	a5,-28(s0)
	bnez	a5,.L53
	.loc 1 296 14
	lla	a0,.LC2
	call	rt_kprintf
	.loc 1 296 110
	lw	a5,-36(s0)
	addi	a5,a5,4
	.loc 1 296 57
	mv	a1,a5
	lla	a0,.LC26
	call	rt_kprintf
	.loc 1 296 119
	lla	a0,.LC4
	call	rt_kprintf
	.loc 1 297 16
	li	a5,-1
	j	.L54
.L53:
	.loc 1 300 35
	li	a0,300
	call	rt_tick_from_millisecond
	mv	a5,a0
	.loc 1 300 12
	mv	a2,a5
	li	a1,0
	li	a0,128
	call	at_create_resp
	sw	a0,-24(s0)
	.loc 1 301 8
	lw	a5,-24(s0)
	bnez	a5,.L55
	.loc 1 303 14
	lla	a0,.LC2
	call	rt_kprintf
	.loc 1 303 57
	lla	a0,.LC3
	call	rt_kprintf
	.loc 1 303 99
	lla	a0,.LC4
	call	rt_kprintf
	.loc 1 304 16
	li	a5,-5
	j	.L54
.L55:
	.loc 1 308 9
	lw	a5,-28(s0)
	lw	s1,16(a5)
	lw	a0,-44(s0)
	call	netdev_ip4addr_ntoa
	mv	a5,a0
	mv	a3,a5
	lla	a2,.LC32
	lw	a1,-24(s0)
	mv	a0,s1
	call	at_obj_exec_cmd
	mv	a5,a0
	.loc 1 308 8
	bgez	a5,.L56
	.loc 1 310 14
	lla	a0,.LC2
	call	rt_kprintf
	.loc 1 310 103
	lw	a5,-28(s0)
	.loc 1 310 57
	mv	a1,a5
	lla	a0,.LC33
	call	rt_kprintf
	.loc 1 310 112
	lla	a0,.LC4
	call	rt_kprintf
	.loc 1 311 16
	li	a5,-1
	sw	a5,-20(s0)
	j	.L57
.L56:
	.loc 1 315 9
	lbu	a5,-37(s0)
	lw	a2,-44(s0)
	mv	a1,a5
	lw	a0,-36(s0)
	call	netdev_low_level_set_dns_server
.L57:
	.loc 1 319 8
	lw	a5,-24(s0)
	beqz	a5,.L58
	.loc 1 321 9
	lw	a0,-24(s0)
	call	at_delete_resp
.L58:
	.loc 1 324 12
	lw	a5,-20(s0)
.L54:
	.loc 1 325 1
	mv	a0,a5
	lw	ra,44(sp)
	.cfi_restore 1
	lw	s0,40(sp)
	.cfi_restore 8
	lw	s1,36(sp)
	.cfi_restore 9
	addi	sp,sp,48
	.cfi_def_cfa_register 2
	jr	ra
	.cfi_endproc
.LFE32:
	.size	esp8266_netdev_set_dns_server, .-esp8266_netdev_set_dns_server
	.section	.rodata
	.align	2
.LC34:
	.string	"no memory for resp struct."
	.align	2
.LC35:
	.string	"AT+CWDHCP_CUR=%d,%d"
	.align	2
.LC36:
	.string	"%s device set DHCP status(%d) failed."
	.text
	.align	1
	.type	esp8266_netdev_set_dhcp, @function
esp8266_netdev_set_dhcp:
.LFB33:
	.loc 1 328 1
	.cfi_startproc
	addi	sp,sp,-48
	.cfi_def_cfa_offset 48
	sw	ra,44(sp)
	sw	s0,40(sp)
	.cfi_offset 1, -4
	.cfi_offset 8, -8
	addi	s0,sp,48
	.cfi_def_cfa 8, 0
	sw	a0,-36(s0)
	sw	a1,-40(s0)
	.loc 1 332 9
	sw	zero,-20(s0)
	.loc 1 333 19
	sw	zero,-24(s0)
	.loc 1 334 23
	sw	zero,-28(s0)
	.loc 1 336 8
	lw	a5,-36(s0)
	bnez	a5,.L60
	.loc 1 336 22 discriminator 1
	li	a2,336
	lla	a1,__FUNCTION__.5346
	lla	a0,.LC27
	call	rt_assert_handler
.L60:
	.loc 1 338 48
	lw	a5,-36(s0)
	addi	a5,a5,4
	.loc 1 338 14
	mv	a1,a5
	li	a0,2
	call	at_device_get_by_name
	sw	a0,-28(s0)
	.loc 1 339 8
	lw	a5,-28(s0)
	bnez	a5,.L61
	.loc 1 341 14
	lla	a0,.LC2
	call	rt_kprintf
	.loc 1 341 110
	lw	a5,-36(s0)
	addi	a5,a5,4
	.loc 1 341 57
	mv	a1,a5
	lla	a0,.LC26
	call	rt_kprintf
	.loc 1 341 119
	lla	a0,.LC4
	call	rt_kprintf
	.loc 1 342 16
	li	a5,-1
	j	.L62
.L61:
	.loc 1 345 35
	li	a0,300
	call	rt_tick_from_millisecond
	mv	a5,a0
	.loc 1 345 12
	mv	a2,a5
	li	a1,0
	li	a0,128
	call	at_create_resp
	sw	a0,-24(s0)
	.loc 1 346 8
	lw	a5,-24(s0)
	bnez	a5,.L63
	.loc 1 348 14
	lla	a0,.LC2
	call	rt_kprintf
	.loc 1 348 57
	lla	a0,.LC34
	call	rt_kprintf
	.loc 1 348 99
	lla	a0,.LC4
	call	rt_kprintf
	.loc 1 349 16
	li	a5,-5
	j	.L62
.L63:
	.loc 1 353 9
	lw	a5,-28(s0)
	lw	a5,16(a5)
	lw	a4,-40(s0)
	li	a3,1
	lla	a2,.LC35
	lw	a1,-24(s0)
	mv	a0,a5
	call	at_obj_exec_cmd
	mv	a5,a0
	.loc 1 353 8
	bgez	a5,.L64
	.loc 1 355 14
	lla	a0,.LC2
	call	rt_kprintf
	.loc 1 355 115
	lw	a5,-28(s0)
	.loc 1 355 57
	lw	a2,-40(s0)
	mv	a1,a5
	lla	a0,.LC36
	call	rt_kprintf
	.loc 1 355 136
	lla	a0,.LC4
	call	rt_kprintf
	.loc 1 356 16
	li	a5,-1
	sw	a5,-20(s0)
	.loc 1 357 9
	j	.L65
.L64:
	.loc 1 361 9
	lw	a1,-40(s0)
	lw	a0,-36(s0)
	call	netdev_low_level_set_dhcp_status
.L65:
	.loc 1 366 8
	lw	a5,-24(s0)
	beqz	a5,.L66
	.loc 1 368 9
	lw	a0,-24(s0)
	call	at_delete_resp
.L66:
	.loc 1 371 12
	lw	a5,-20(s0)
.L62:
	.loc 1 372 1
	mv	a0,a5
	lw	ra,44(sp)
	.cfi_restore 1
	lw	s0,40(sp)
	.cfi_restore 8
	addi	sp,sp,48
	.cfi_def_cfa_register 2
	jr	ra
	.cfi_endproc
.LFE33:
	.size	esp8266_netdev_set_dhcp, .-esp8266_netdev_set_dhcp
	.section	.rodata
	.align	2
.LC37:
	.string	"host"
	.align	2
.LC38:
	.string	"ping_resp"
	.align	2
.LC39:
	.string	"AT+CIPDOMAIN=\"%s\""
	.align	2
.LC40:
	.string	"+CIPDOMAIN:%s"
	.align	2
.LC41:
	.string	"+CIPDOMAIN:"
	.align	2
.LC42:
	.string	"AT+PING=\"%s\""
	.align	2
.LC43:
	.string	"+%d"
	.align	2
.LC44:
	.string	"+"
	.text
	.align	1
	.type	esp8266_netdev_ping, @function
esp8266_netdev_ping:
.LFB34:
	.loc 1 377 1
	.cfi_startproc
	addi	sp,sp,-80
	.cfi_def_cfa_offset 80
	sw	ra,76(sp)
	sw	s0,72(sp)
	.cfi_offset 1, -4
	.cfi_offset 8, -8
	addi	s0,sp,80
	.cfi_def_cfa 8, 0
	sw	a0,-52(s0)
	sw	a1,-56(s0)
	sw	a2,-60(s0)
	sw	a3,-64(s0)
	sw	a4,-68(s0)
	.loc 1 380 14
	sw	zero,-20(s0)
	.loc 1 381 19
	sw	zero,-24(s0)
	.loc 1 382 23
	sw	zero,-28(s0)
	.loc 1 383 10
	sw	zero,-44(s0)
	sw	zero,-40(s0)
	sw	zero,-36(s0)
	sw	zero,-32(s0)
	.loc 1 386 8
	lw	a5,-52(s0)
	bnez	a5,.L68
	.loc 1 386 22 discriminator 1
	li	a2,386
	lla	a1,__FUNCTION__.5360
	lla	a0,.LC27
	call	rt_assert_handler
.L68:
	.loc 1 387 8
	lw	a5,-56(s0)
	bnez	a5,.L69
	.loc 1 387 20 discriminator 1
	li	a2,387
	lla	a1,__FUNCTION__.5360
	lla	a0,.LC37
	call	rt_assert_handler
.L69:
	.loc 1 388 8
	lw	a5,-68(s0)
	bnez	a5,.L70
	.loc 1 388 25 discriminator 1
	li	a2,388
	lla	a1,__FUNCTION__.5360
	lla	a0,.LC38
	call	rt_assert_handler
.L70:
	.loc 1 390 48
	lw	a5,-52(s0)
	addi	a5,a5,4
	.loc 1 390 14
	mv	a1,a5
	li	a0,2
	call	at_device_get_by_name
	sw	a0,-28(s0)
	.loc 1 391 8
	lw	a5,-28(s0)
	bnez	a5,.L71
	.loc 1 393 14
	lla	a0,.LC2
	call	rt_kprintf
	.loc 1 393 100
	lw	a5,-52(s0)
	addi	a5,a5,4
	.loc 1 393 57
	mv	a1,a5
	lla	a0,.LC25
	call	rt_kprintf
	.loc 1 393 109
	lla	a0,.LC4
	call	rt_kprintf
	.loc 1 394 16
	li	a5,-1
	j	.L80
.L71:
	.loc 1 397 12
	lw	a5,-64(s0)
	mv	a2,a5
	li	a1,0
	li	a0,64
	call	at_create_resp
	sw	a0,-24(s0)
	.loc 1 398 8
	lw	a5,-24(s0)
	bnez	a5,.L73
	.loc 1 400 14
	lla	a0,.LC2
	call	rt_kprintf
	.loc 1 400 57
	lla	a0,.LC3
	call	rt_kprintf
	.loc 1 400 99
	lla	a0,.LC4
	call	rt_kprintf
	.loc 1 401 16
	li	a5,-5
	j	.L80
.L73:
	.loc 1 405 9
	lw	a5,-28(s0)
	lw	a5,16(a5)
	lw	a3,-56(s0)
	lla	a2,.LC39
	lw	a1,-24(s0)
	mv	a0,a5
	call	at_obj_exec_cmd
	mv	a5,a0
	.loc 1 405 8
	bgez	a5,.L74
	.loc 1 407 16
	li	a5,-1
	sw	a5,-20(s0)
	.loc 1 408 9
	j	.L75
.L74:
	.loc 1 412 9
	addi	a5,s0,-44
	mv	a3,a5
	lla	a2,.LC40
	lla	a1,.LC41
	lw	a0,-24(s0)
	call	at_resp_parse_line_args_by_kw
	mv	a5,a0
	.loc 1 412 8
	bgez	a5,.L76
	.loc 1 414 16
	li	a5,-1
	sw	a5,-20(s0)
	.loc 1 415 9
	j	.L75
.L76:
	.loc 1 419 9
	lw	a5,-28(s0)
	lw	a5,16(a5)
	lw	a3,-56(s0)
	lla	a2,.LC42
	lw	a1,-24(s0)
	mv	a0,a5
	call	at_obj_exec_cmd
	mv	a5,a0
	.loc 1 419 8
	bgez	a5,.L77
	.loc 1 421 16
	li	a5,-1
	sw	a5,-20(s0)
	.loc 1 422 9
	j	.L75
.L77:
	.loc 1 425 9
	addi	a5,s0,-48
	mv	a3,a5
	lla	a2,.LC43
	lla	a1,.LC44
	lw	a0,-24(s0)
	call	at_resp_parse_line_args_by_kw
	mv	a5,a0
	.loc 1 425 8
	bgez	a5,.L78
	.loc 1 427 16
	li	a5,-1
	sw	a5,-20(s0)
	.loc 1 428 9
	j	.L75
.L78:
	.loc 1 431 9
	lw	a5,-48(s0)
	.loc 1 431 8
	beqz	a5,.L81
	.loc 1 433 50
	lw	a4,-68(s0)
	.loc 1 433 9
	addi	a5,s0,-44
	mv	a1,a4
	mv	a0,a5
	call	netdev_ip4addr_aton
	.loc 1 434 29
	lw	a5,-60(s0)
	slli	a4,a5,16
	srli	a4,a4,16
	lw	a5,-68(s0)
	sh	a4,4(a5)
	.loc 1 435 24
	lw	a5,-68(s0)
	sh	zero,6(a5)
	.loc 1 436 26
	lw	a5,-48(s0)
	mv	a4,a5
	lw	a5,-68(s0)
	sw	a4,8(a5)
	j	.L75
.L81:
	.loc 1 439 1
	nop
.L75:
	.loc 1 440 8
	lw	a5,-24(s0)
	beqz	a5,.L79
	.loc 1 442 9
	lw	a0,-24(s0)
	call	at_delete_resp
.L79:
	.loc 1 445 12
	lw	a5,-20(s0)
.L80:
	.loc 1 446 1 discriminator 1
	mv	a0,a5
	lw	ra,76(sp)
	.cfi_restore 1
	lw	s0,72(sp)
	.cfi_restore 8
	addi	sp,sp,80
	.cfi_def_cfa_register 2
	jr	ra
	.cfi_endproc
.LFE34:
	.size	esp8266_netdev_ping, .-esp8266_netdev_ping
	.section	.rodata
	.align	2
.LC45:
	.string	"no memory for ipaddr create."
	.align	2
.LC46:
	.string	"AT+CIPSTATUS"
	.align	2
.LC47:
	.string	"+CIPSTATUS"
	.align	2
.LC48:
	.string	"+CIPSTATUS:%*d,\"%[^\"]\",\"%[^\"]\",%d,%d,%*d"
	.align	2
.LC49:
	.string	"%s: %s:%d ==> %s:%d\n"
	.text
	.align	1
	.globl	esp8266_netdev_netstat
	.type	esp8266_netdev_netstat, @function
esp8266_netdev_netstat:
.LFB35:
	.loc 1 451 1
	.cfi_startproc
	addi	sp,sp,-64
	.cfi_def_cfa_offset 64
	sw	ra,60(sp)
	sw	s0,56(sp)
	.cfi_offset 1, -4
	.cfi_offset 8, -8
	addi	s0,sp,64
	.cfi_def_cfa 8, 0
	sw	a0,-52(s0)
	.loc 1 457 19
	sw	zero,-20(s0)
	.loc 1 458 23
	sw	zero,-28(s0)
	.loc 1 460 11
	sw	zero,-32(s0)
	.loc 1 461 11
	sw	zero,-36(s0)
	.loc 1 463 48
	lw	a5,-52(s0)
	addi	a5,a5,4
	.loc 1 463 14
	mv	a1,a5
	li	a0,2
	call	at_device_get_by_name
	sw	a0,-28(s0)
	.loc 1 464 8
	lw	a5,-28(s0)
	bnez	a5,.L83
	.loc 1 466 14
	lla	a0,.LC2
	call	rt_kprintf
	.loc 1 466 100
	lw	a5,-52(s0)
	addi	a5,a5,4
	.loc 1 466 57
	mv	a1,a5
	lla	a0,.LC25
	call	rt_kprintf
	.loc 1 466 109
	lla	a0,.LC4
	call	rt_kprintf
	j	.L82
.L83:
	.loc 1 470 21
	li	a1,4
	li	a0,1
	call	rt_calloc
	sw	a0,-32(s0)
	.loc 1 471 23
	li	a1,17
	li	a0,1
	call	rt_calloc
	sw	a0,-36(s0)
	.loc 1 472 15
	lw	a5,-32(s0)
	beqz	a5,.L85
	.loc 1 472 15 is_stmt 0 discriminator 1
	lw	a5,-36(s0)
	beqz	a5,.L85
	.loc 1 472 15 discriminator 3
	li	a5,1
	j	.L86
.L85:
	.loc 1 472 15 discriminator 4
	li	a5,0
.L86:
	.loc 1 472 8 is_stmt 1 discriminator 6
	bnez	a5,.L87
	.loc 1 474 14
	lla	a0,.LC2
	call	rt_kprintf
	.loc 1 474 57
	lla	a0,.LC45
	call	rt_kprintf
	.loc 1 474 101
	lla	a0,.LC4
	call	rt_kprintf
	.loc 1 475 9
	j	.L88
.L87:
	.loc 1 478 12
	li	a5,4096
	addi	a2,a5,904
	li	a1,0
	li	a0,320
	call	at_create_resp
	sw	a0,-20(s0)
	.loc 1 479 8
	lw	a5,-20(s0)
	bnez	a5,.L89
	.loc 1 481 14
	lla	a0,.LC2
	call	rt_kprintf
	.loc 1 481 104
	lw	a5,-28(s0)
	.loc 1 481 57
	mv	a1,a5
	lla	a0,.LC3
	call	rt_kprintf
	.loc 1 481 113
	lla	a0,.LC4
	call	rt_kprintf
	.loc 1 482 9
	j	.L88
.L89:
	.loc 1 486 9
	lw	a5,-28(s0)
	lw	a5,16(a5)
	lla	a2,.LC46
	lw	a1,-20(s0)
	mv	a0,a5
	call	at_obj_exec_cmd
	mv	a5,a0
	.loc 1 486 8
	bltz	a5,.L98
	.loc 1 491 12
	li	a5,1
	sw	a5,-24(s0)
	.loc 1 491 5
	j	.L91
.L94:
	.loc 1 493 13
	lw	a5,-24(s0)
	mv	a1,a5
	lw	a0,-20(s0)
	call	at_resp_get_line
	mv	a5,a0
	lla	a1,.LC47
	mv	a0,a5
	call	strstr
	mv	a5,a0
	.loc 1 493 12
	beqz	a5,.L92
	.loc 1 496 17
	lw	a1,-24(s0)
	addi	a4,s0,-44
	addi	a5,s0,-40
	mv	a6,a4
	lw	a4,-36(s0)
	lw	a3,-32(s0)
	lla	a2,.LC48
	lw	a0,-20(s0)
	call	at_resp_parse_line_args
	mv	a5,a0
	.loc 1 496 16
	bltz	a5,.L99
	.loc 1 502 98
	lw	a5,-52(s0)
	addi	a5,a5,12
	.loc 1 502 17
	mv	a0,a5
	call	netdev_ip4addr_ntoa
	mv	a2,a0
	lw	a3,-44(s0)
	lw	a5,-40(s0)
	lw	a4,-36(s0)
	lw	a1,-32(s0)
	lla	a0,.LC49
	call	rt_kprintf
.L92:
	.loc 1 491 42 discriminator 2
	lw	a5,-24(s0)
	addi	a5,a5,1
	sw	a5,-24(s0)
.L91:
	.loc 1 491 26 discriminator 1
	lw	a5,-20(s0)
	lw	a4,16(a5)
	.loc 1 491 19 discriminator 1
	lw	a5,-24(s0)
	.loc 1 491 5 discriminator 1
	bgeu	a4,a5,.L94
	.loc 1 507 1
	j	.L88
.L98:
	.loc 1 488 9
	nop
	j	.L88
.L99:
	.loc 1 498 17
	nop
.L88:
	.loc 1 508 8
	lw	a5,-20(s0)
	beqz	a5,.L95
	.loc 1 510 9
	lw	a0,-20(s0)
	call	at_delete_resp
.L95:
	.loc 1 513 8
	lw	a5,-32(s0)
	beqz	a5,.L96
	.loc 1 515 9
	lw	a0,-32(s0)
	call	rt_free
.L96:
	.loc 1 518 8
	lw	a5,-36(s0)
	beqz	a5,.L82
	.loc 1 520 9
	lw	a0,-36(s0)
	call	rt_free
.L82:
	.loc 1 522 1
	lw	ra,60(sp)
	.cfi_restore 1
	lw	s0,56(sp)
	.cfi_restore 8
	addi	sp,sp,64
	.cfi_def_cfa_register 2
	jr	ra
	.cfi_endproc
.LFE35:
	.size	esp8266_netdev_netstat, .-esp8266_netdev_netstat
	.section	.rodata
	.align	2
	.type	esp8266_netdev_ops, @object
	.size	esp8266_netdev_ops, 32
esp8266_netdev_ops:
	.word	esp8266_netdev_set_up
	.word	esp8266_netdev_set_down
	.word	esp8266_netdev_set_addr_info
	.word	esp8266_netdev_set_dns_server
	.word	esp8266_netdev_set_dhcp
	.word	esp8266_netdev_ping
	.word	esp8266_netdev_netstat
	.zero	4
	.align	2
.LC50:
	.string	"netdev_name"
	.align	2
.LC51:
	.string	"no memory for netdev create."
	.text
	.align	1
	.type	esp8266_netdev_add, @function
esp8266_netdev_add:
.LFB36:
	.loc 1 543 1
	.cfi_startproc
	addi	sp,sp,-48
	.cfi_def_cfa_offset 48
	sw	ra,44(sp)
	sw	s0,40(sp)
	.cfi_offset 1, -4
	.cfi_offset 8, -8
	addi	s0,sp,48
	.cfi_def_cfa 8, 0
	sw	a0,-36(s0)
	.loc 1 546 20
	sw	zero,-20(s0)
	.loc 1 548 8
	lw	a5,-36(s0)
	bnez	a5,.L101
	.loc 1 548 27 discriminator 1
	li	a2,548
	lla	a1,__FUNCTION__.5381
	lla	a0,.LC50
	call	rt_assert_handler
.L101:
	.loc 1 550 14
	lw	a0,-36(s0)
	call	netdev_get_by_name
	sw	a0,-20(s0)
	.loc 1 551 8
	lw	a5,-20(s0)
	beqz	a5,.L102
	.loc 1 553 16
	lw	a5,-20(s0)
	j	.L103
.L102:
	.loc 1 556 32
	li	a1,68
	li	a0,1
	call	rt_calloc
	sw	a0,-20(s0)
	.loc 1 557 8
	lw	a5,-20(s0)
	bnez	a5,.L104
	.loc 1 559 14
	lla	a0,.LC2
	call	rt_kprintf
	.loc 1 559 57
	lla	a0,.LC51
	call	rt_kprintf
	.loc 1 559 101
	lla	a0,.LC4
	call	rt_kprintf
	.loc 1 560 16
	li	a5,0
	j	.L103
.L104:
	.loc 1 563 17
	lw	a5,-20(s0)
	li	a4,1500
	sh	a4,44(a5)
	.loc 1 564 17
	lw	a5,-20(s0)
	lla	a4,esp8266_netdev_ops
	sw	a4,48(a5)
	.loc 1 565 24
	lw	a5,-20(s0)
	li	a4,6
	sb	a4,32(a5)
	.loc 1 570 5
	lw	a0,-20(s0)
	call	sal_at_netdev_set_pf_info
	.loc 1 573 5
	li	a2,0
	lw	a1,-36(s0)
	lw	a0,-20(s0)
	call	netdev_register
	.loc 1 575 12
	lw	a5,-20(s0)
.L103:
	.loc 1 576 1
	mv	a0,a5
	lw	ra,44(sp)
	.cfi_restore 1
	lw	s0,40(sp)
	.cfi_restore 8
	addi	sp,sp,48
	.cfi_def_cfa_register 2
	jr	ra
	.cfi_endproc
.LFE36:
	.size	esp8266_netdev_add, .-esp8266_netdev_add
	.align	1
	.type	esp8266_netdev_start_delay_work, @function
esp8266_netdev_start_delay_work:
.LFB37:
	.loc 1 591 1
	.cfi_startproc
	addi	sp,sp,-48
	.cfi_def_cfa_offset 48
	sw	ra,44(sp)
	sw	s0,40(sp)
	.cfi_offset 1, -4
	.cfi_offset 8, -8
	addi	s0,sp,48
	.cfi_def_cfa 8, 0
	sw	a0,-36(s0)
	.loc 1 592 21
	sw	zero,-20(s0)
	.loc 1 593 34
	li	a1,68
	li	a0,1
	call	rt_calloc
	sw	a0,-20(s0)
	.loc 1 594 8
	lw	a5,-20(s0)
	beqz	a5,.L108
	.loc 1 599 5
	lw	a2,-36(s0)
	lla	a1,esp8266_get_netdev_info
	lw	a0,-20(s0)
	call	rt_work_init
	.loc 1 600 5
	li	a1,1000
	lw	a0,-20(s0)
	call	rt_work_submit
	j	.L105
.L108:
	.loc 1 596 9
	nop
.L105:
	.loc 1 601 1
	lw	ra,44(sp)
	.cfi_restore 1
	lw	s0,40(sp)
	.cfi_restore 8
	addi	sp,sp,48
	.cfi_def_cfa_register 2
	jr	ra
	.cfi_endproc
.LFE37:
	.size	esp8266_netdev_start_delay_work, .-esp8266_netdev_start_delay_work
	.section	.rodata
	.align	2
.LC52:
	.string	"AT+RST"
	.align	2
.LC53:
	.string	"ATE0"
	.align	2
.LC54:
	.string	"AT+CWMODE=1"
	.align	2
.LC55:
	.string	"AT+GMR"
	.align	2
.LC56:
	.string	"AT+CIPMUX=1"
	.align	2
.LC57:
	.string	"[I/at.dev.esp] "
	.align	2
.LC58:
	.string	"%s device initialize retry..."
	.align	2
.LC59:
	.string	"AT+CWJAP=\"%s\",\"%s\""
	.align	2
.LC60:
	.string	"%s device wifi connect failed, check ssid(%s) and password(%s)."
	.align	2
.LC61:
	.string	"%s device network initialize failed(%d)."
	.align	2
.LC62:
	.string	"%s device network initialize successfully."
	.text
	.align	1
	.type	esp8266_init_thread_entry, @function
esp8266_init_thread_entry:
.LFB38:
	.loc 1 604 1
	.cfi_startproc
	addi	sp,sp,-64
	.cfi_def_cfa_offset 64
	sw	ra,60(sp)
	sw	s0,56(sp)
	.cfi_offset 1, -4
	.cfi_offset 8, -8
	addi	s0,sp,64
	.cfi_def_cfa 8, 0
	sw	a0,-52(s0)
	.loc 1 607 23
	lw	a5,-52(s0)
	sw	a5,-40(s0)
	.loc 1 608 31
	lw	a5,-40(s0)
	lw	a5,36(a5)
	sw	a5,-44(s0)
	.loc 1 609 23
	lw	a5,-40(s0)
	lw	a5,16(a5)
	sw	a5,-48(s0)
	.loc 1 610 19
	sw	zero,-20(s0)
	.loc 1 611 14
	sw	zero,-24(s0)
	.loc 1 612 15
	sw	zero,-28(s0)
	.loc 1 612 22
	li	a5,5
	sw	a5,-32(s0)
	.loc 1 613 15
	sw	zero,-36(s0)
	.loc 1 618 9
	li	a5,4096
	addi	a1,a5,904
	lw	a0,-48(s0)
	call	at_client_obj_wait_connect
	mv	a5,a0
	.loc 1 618 8
	bnez	a5,.L129
	.loc 1 623 12
	li	a5,4096
	addi	a2,a5,904
	li	a1,0
	li	a0,128
	call	at_create_resp
	sw	a0,-20(s0)
	.loc 1 624 8
	lw	a5,-20(s0)
	bnez	a5,.L113
	.loc 1 626 14
	lla	a0,.LC2
	call	rt_kprintf
	.loc 1 626 57
	lla	a0,.LC3
	call	rt_kprintf
	.loc 1 626 99
	lla	a0,.LC4
	call	rt_kprintf
	.loc 1 627 9
	j	.L109
.L123:
	.loc 1 633 23
	li	a5,4096
	addi	a3,a5,904
	li	a2,0
	li	a1,256
	lw	a0,-20(s0)
	call	at_resp_set_info
	sw	a0,-20(s0)
	.loc 1 633 71
	lla	a2,.LC52
	lw	a1,-20(s0)
	lw	a0,-48(s0)
	call	at_obj_exec_cmd
	mv	a5,a0
	.loc 1 633 70
	bgez	a5,.L114
	.loc 1 633 131 discriminator 1
	li	a5,-1
	sw	a5,-24(s0)
	.loc 1 633 137 discriminator 1
	j	.L115
.L114:
	.loc 1 635 9
	li	a0,1000
	call	rt_thread_mdelay
	.loc 1 637 23
	li	a5,4096
	addi	a3,a5,904
	li	a2,0
	li	a1,256
	lw	a0,-20(s0)
	call	at_resp_set_info
	sw	a0,-20(s0)
	.loc 1 637 71
	lla	a2,.LC53
	lw	a1,-20(s0)
	lw	a0,-48(s0)
	call	at_obj_exec_cmd
	mv	a5,a0
	.loc 1 637 70
	bgez	a5,.L116
	.loc 1 637 129 discriminator 1
	li	a5,-1
	sw	a5,-24(s0)
	.loc 1 637 135 discriminator 1
	j	.L115
.L116:
	.loc 1 639 23
	li	a5,4096
	addi	a3,a5,904
	li	a2,0
	li	a1,256
	lw	a0,-20(s0)
	call	at_resp_set_info
	sw	a0,-20(s0)
	.loc 1 639 71
	lla	a2,.LC54
	lw	a1,-20(s0)
	lw	a0,-48(s0)
	call	at_obj_exec_cmd
	mv	a5,a0
	.loc 1 639 70
	bgez	a5,.L117
	.loc 1 639 136 discriminator 1
	li	a5,-1
	sw	a5,-24(s0)
	.loc 1 639 142 discriminator 1
	j	.L115
.L117:
	.loc 1 641 23
	li	a5,4096
	addi	a3,a5,904
	li	a2,0
	li	a1,256
	lw	a0,-20(s0)
	call	at_resp_set_info
	sw	a0,-20(s0)
	.loc 1 641 71
	lla	a2,.LC55
	lw	a1,-20(s0)
	lw	a0,-48(s0)
	call	at_obj_exec_cmd
	mv	a5,a0
	.loc 1 641 70
	bgez	a5,.L118
	.loc 1 641 131 discriminator 1
	li	a5,-1
	sw	a5,-24(s0)
	.loc 1 641 137 discriminator 1
	j	.L115
.L118:
	.loc 1 643 16
	sw	zero,-28(s0)
	.loc 1 643 9
	j	.L119
.L120:
	.loc 1 643 49 discriminator 3
	lw	a5,-28(s0)
	addi	a5,a5,1
	sw	a5,-28(s0)
.L119:
	.loc 1 643 29 discriminator 1
	lw	a5,-20(s0)
	lw	a5,16(a5)
	.loc 1 643 43 discriminator 1
	addi	a5,a5,-1
	.loc 1 643 9 discriminator 1
	lw	a4,-28(s0)
	bltu	a4,a5,.L120
	.loc 1 648 23
	li	a5,4096
	addi	a3,a5,904
	li	a2,0
	li	a1,256
	lw	a0,-20(s0)
	call	at_resp_set_info
	sw	a0,-20(s0)
	.loc 1 648 71
	lla	a2,.LC56
	lw	a1,-20(s0)
	lw	a0,-48(s0)
	call	at_obj_exec_cmd
	mv	a5,a0
	.loc 1 648 70
	bgez	a5,.L121
	.loc 1 648 136 discriminator 1
	li	a5,-1
	sw	a5,-24(s0)
	.loc 1 648 142 discriminator 1
	j	.L115
.L121:
	.loc 1 651 16
	sw	zero,-24(s0)
	.loc 1 652 9
	j	.L122
.L115:
	.loc 1 655 12
	lw	a5,-24(s0)
	beqz	a5,.L113
	.loc 1 657 13
	li	a0,1000
	call	rt_thread_mdelay
	.loc 1 658 18
	lla	a0,.LC57
	call	rt_kprintf
	.loc 1 658 111
	lw	a5,-40(s0)
	.loc 1 658 61
	mv	a1,a5
	lla	a0,.LC58
	call	rt_kprintf
	.loc 1 658 120
	lla	a0,.LC4
	call	rt_kprintf
.L113:
	.loc 1 630 21
	lw	a5,-32(s0)
	addi	a4,a5,-1
	sw	a4,-32(s0)
	.loc 1 630 11
	bnez	a5,.L123
.L122:
	.loc 1 663 9
	li	a5,20480
	addi	a3,a5,-480
	li	a2,0
	li	a1,128
	lw	a0,-20(s0)
	call	at_resp_set_info
	mv	a1,a0
	lw	a5,-44(s0)
	lw	a3,8(a5)
	lw	a5,-44(s0)
	lw	a5,12(a5)
	mv	a4,a5
	lla	a2,.LC59
	lw	a0,-48(s0)
	call	at_obj_exec_cmd
	mv	a5,a0
	.loc 1 663 8
	beqz	a5,.L124
	.loc 1 666 14
	lla	a0,.LC16
	call	rt_kprintf
	.loc 1 666 141
	lw	a4,-40(s0)
	.loc 1 666 57
	lw	a5,-44(s0)
	lw	a2,8(a5)
	lw	a5,-44(s0)
	lw	a5,12(a5)
	mv	a3,a5
	mv	a1,a4
	lla	a0,.LC60
	call	rt_kprintf
	.loc 1 666 194
	lla	a0,.LC4
	call	rt_kprintf
	j	.L125
.L124:
	.loc 1 671 22
	li	a5,1
	sw	a5,-36(s0)
.L125:
	.loc 1 674 8
	lw	a5,-20(s0)
	beqz	a5,.L126
	.loc 1 676 9
	lw	a0,-20(s0)
	call	at_delete_resp
.L126:
	.loc 1 679 8
	lw	a5,-24(s0)
	beqz	a5,.L127
	.loc 1 681 9
	lw	a5,-40(s0)
	lw	a5,20(a5)
	li	a1,0
	mv	a0,a5
	call	netdev_low_level_set_status
	.loc 1 682 14
	lla	a0,.LC2
	call	rt_kprintf
	.loc 1 682 118
	lw	a5,-40(s0)
	.loc 1 682 57
	lw	a2,-24(s0)
	mv	a1,a5
	lla	a0,.LC61
	call	rt_kprintf
	.loc 1 682 135
	lla	a0,.LC4
	call	rt_kprintf
	j	.L109
.L127:
	.loc 1 686 25
	lw	a5,-40(s0)
	li	a4,1
	sw	a4,8(a5)
	.loc 1 687 9
	lw	a5,-40(s0)
	lw	a5,20(a5)
	li	a1,1
	mv	a0,a5
	call	netdev_low_level_set_status
	.loc 1 688 12
	lw	a5,-36(s0)
	beqz	a5,.L128
	.loc 1 690 13
	lw	a5,-40(s0)
	lw	a5,20(a5)
	li	a1,1
	mv	a0,a5
	call	netdev_low_level_set_link_status
.L128:
	.loc 1 692 9
	lw	a0,-40(s0)
	call	esp8266_netdev_start_delay_work
	.loc 1 693 14
	lla	a0,.LC57
	call	rt_kprintf
	.loc 1 693 120
	lw	a5,-40(s0)
	.loc 1 693 57
	mv	a1,a5
	lla	a0,.LC62
	call	rt_kprintf
	.loc 1 693 129
	lla	a0,.LC4
	call	rt_kprintf
	j	.L109
.L129:
	.loc 1 620 9
	nop
.L109:
	.loc 1 695 1
	lw	ra,60(sp)
	.cfi_restore 1
	lw	s0,56(sp)
	.cfi_restore 8
	addi	sp,sp,64
	.cfi_def_cfa_register 2
	jr	ra
	.cfi_endproc
.LFE38:
	.size	esp8266_init_thread_entry, .-esp8266_init_thread_entry
	.align	1
	.type	esp8266_net_init, @function
esp8266_net_init:
.LFB39:
	.loc 1 698 1
	.cfi_startproc
	addi	sp,sp,-32
	.cfi_def_cfa_offset 32
	sw	ra,28(sp)
	sw	s0,24(sp)
	.cfi_offset 1, -4
	.cfi_offset 8, -8
	addi	s0,sp,32
	.cfi_def_cfa 8, 0
	sw	a0,-20(s0)
	.loc 1 714 5
	lw	a0,-20(s0)
	call	esp8266_init_thread_entry
	.loc 1 717 12
	li	a5,0
	.loc 1 718 1
	mv	a0,a5
	lw	ra,28(sp)
	.cfi_restore 1
	lw	s0,24(sp)
	.cfi_restore 8
	addi	sp,sp,32
	.cfi_def_cfa_register 2
	jr	ra
	.cfi_endproc
.LFE39:
	.size	esp8266_net_init, .-esp8266_net_init
	.align	1
	.type	urc_busy_p_func, @function
urc_busy_p_func:
.LFB40:
	.loc 1 721 1
	.cfi_startproc
	addi	sp,sp,-32
	.cfi_def_cfa_offset 32
	sw	s0,28(sp)
	.cfi_offset 8, -4
	addi	s0,sp,32
	.cfi_def_cfa 8, 0
	sw	a0,-20(s0)
	sw	a1,-24(s0)
	sw	a2,-28(s0)
	.loc 1 723 1
	nop
	lw	s0,28(sp)
	.cfi_restore 8
	addi	sp,sp,32
	.cfi_def_cfa_register 2
	jr	ra
	.cfi_endproc
.LFE40:
	.size	urc_busy_p_func, .-urc_busy_p_func
	.align	1
	.type	urc_busy_s_func, @function
urc_busy_s_func:
.LFB41:
	.loc 1 726 1
	.cfi_startproc
	addi	sp,sp,-32
	.cfi_def_cfa_offset 32
	sw	s0,28(sp)
	.cfi_offset 8, -4
	addi	s0,sp,32
	.cfi_def_cfa 8, 0
	sw	a0,-20(s0)
	sw	a1,-24(s0)
	sw	a2,-28(s0)
	.loc 1 728 1
	nop
	lw	s0,28(sp)
	.cfi_restore 8
	addi	sp,sp,32
	.cfi_def_cfa_register 2
	jr	ra
	.cfi_endproc
.LFE41:
	.size	urc_busy_s_func, .-urc_busy_s_func
	.section	.rodata
	.align	2
.LC63:
	.string	"client && data && size"
	.align	2
.LC64:
	.string	"WIFI CONNECTED"
	.align	2
.LC65:
	.string	"%s device wifi is connected."
	.align	2
.LC66:
	.string	"WIFI DISCONNECT"
	.align	2
.LC67:
	.string	"%s device wifi is disconnect."
	.text
	.align	1
	.type	urc_func, @function
urc_func:
.LFB42:
	.loc 1 731 1
	.cfi_startproc
	addi	sp,sp,-48
	.cfi_def_cfa_offset 48
	sw	ra,44(sp)
	sw	s0,40(sp)
	.cfi_offset 1, -4
	.cfi_offset 8, -8
	addi	s0,sp,48
	.cfi_def_cfa 8, 0
	sw	a0,-36(s0)
	sw	a1,-40(s0)
	sw	a2,-44(s0)
	.loc 1 732 23
	sw	zero,-20(s0)
	.loc 1 733 31
	lw	a5,-36(s0)
	lw	a5,0(a5)
	.loc 1 733 11
	sw	a5,-24(s0)
	.loc 1 735 8
	lw	a5,-36(s0)
	beqz	a5,.L135
	.loc 1 735 18 discriminator 2
	lw	a5,-40(s0)
	beqz	a5,.L135
	.loc 1 735 9 discriminator 4
	lw	a5,-44(s0)
	bnez	a5,.L136
.L135:
	.loc 1 735 38 discriminator 5
	li	a2,735
	lla	a1,__FUNCTION__.5427
	lla	a0,.LC63
	call	rt_assert_handler
.L136:
	.loc 1 737 14
	lw	a1,-24(s0)
	li	a0,3
	call	at_device_get_by_name
	sw	a0,-20(s0)
	.loc 1 738 8
	lw	a5,-20(s0)
	bnez	a5,.L137
	.loc 1 740 14
	lla	a0,.LC2
	call	rt_kprintf
	.loc 1 740 57
	lw	a1,-24(s0)
	lla	a0,.LC25
	call	rt_kprintf
	.loc 1 740 108
	lla	a0,.LC4
	call	rt_kprintf
	.loc 1 741 9
	j	.L134
.L137:
	.loc 1 744 9
	lla	a1,.LC64
	lw	a0,-40(s0)
	call	rt_strstr
	mv	a5,a0
	.loc 1 744 8
	beqz	a5,.L139
	.loc 1 746 14
	lla	a0,.LC57
	call	rt_kprintf
	.loc 1 746 106
	lw	a5,-20(s0)
	.loc 1 746 57
	mv	a1,a5
	lla	a0,.LC65
	call	rt_kprintf
	.loc 1 746 115
	lla	a0,.LC4
	call	rt_kprintf
	.loc 1 748 19
	lw	a5,-20(s0)
	lw	a5,8(a5)
	.loc 1 748 12
	beqz	a5,.L134
	.loc 1 750 13
	lw	a5,-20(s0)
	lw	a5,20(a5)
	li	a1,1
	mv	a0,a5
	call	netdev_low_level_set_link_status
	.loc 1 752 13
	lw	a0,-20(s0)
	call	esp8266_netdev_start_delay_work
	j	.L134
.L139:
	.loc 1 755 14
	lla	a1,.LC66
	lw	a0,-40(s0)
	call	rt_strstr
	mv	a5,a0
	.loc 1 755 13
	beqz	a5,.L134
	.loc 1 757 14
	lla	a0,.LC57
	call	rt_kprintf
	.loc 1 757 107
	lw	a5,-20(s0)
	.loc 1 757 57
	mv	a1,a5
	lla	a0,.LC67
	call	rt_kprintf
	.loc 1 757 116
	lla	a0,.LC4
	call	rt_kprintf
	.loc 1 759 19
	lw	a5,-20(s0)
	lw	a5,8(a5)
	.loc 1 759 12
	beqz	a5,.L134
	.loc 1 761 13
	lw	a5,-20(s0)
	lw	a5,20(a5)
	li	a1,0
	mv	a0,a5
	call	netdev_low_level_set_link_status
.L134:
	.loc 1 764 1
	lw	ra,44(sp)
	.cfi_restore 1
	lw	s0,40(sp)
	.cfi_restore 8
	addi	sp,sp,48
	.cfi_def_cfa_register 2
	jr	ra
	.cfi_endproc
.LFE42:
	.size	urc_func, .-urc_func
	.section	.rodata
	.align	2
.LC68:
	.string	"busy p"
	.align	2
.LC69:
	.string	"\r\n"
	.align	2
.LC70:
	.string	"busy s"
	.align	2
	.type	urc_table, @object
	.size	urc_table, 48
urc_table:
	.word	.LC68
	.word	.LC69
	.word	urc_busy_p_func
	.word	.LC70
	.word	.LC69
	.word	urc_busy_s_func
	.word	.LC64
	.word	.LC69
	.word	urc_func
	.word	.LC66
	.word	.LC69
	.word	urc_func
	.align	2
.LC71:
	.string	"get AT client(%s) failed."
	.align	2
.LC72:
	.string	"add netdev(%s) failed."
	.text
	.align	1
	.type	esp8266_init, @function
esp8266_init:
.LFB43:
	.loc 1 775 1
	.cfi_startproc
	addi	sp,sp,-48
	.cfi_def_cfa_offset 48
	sw	ra,44(sp)
	sw	s0,40(sp)
	.cfi_offset 1, -4
	.cfi_offset 8, -8
	addi	s0,sp,48
	.cfi_def_cfa 8, 0
	sw	a0,-36(s0)
	.loc 1 776 31
	lw	a5,-36(s0)
	lw	a5,36(a5)
	sw	a5,-20(s0)
	.loc 1 779 27
	lw	a5,-20(s0)
	lw	a4,4(a5)
	.loc 1 779 5
	lw	a5,-20(s0)
	lw	a5,16(a5)
	mv	a1,a5
	mv	a0,a4
	call	at_client_init
	.loc 1 781 43
	lw	a5,-20(s0)
	lw	a5,4(a5)
	.loc 1 781 22
	mv	a0,a5
	call	at_client_get
	mv	a4,a0
	.loc 1 781 20
	lw	a5,-36(s0)
	sw	a4,16(a5)
	.loc 1 782 15
	lw	a5,-36(s0)
	lw	a5,16(a5)
	.loc 1 782 8
	bnez	a5,.L142
	.loc 1 784 14
	lla	a0,.LC2
	call	rt_kprintf
	.loc 1 784 57
	lw	a5,-20(s0)
	lw	a5,4(a5)
	mv	a1,a5
	lla	a0,.LC71
	call	rt_kprintf
	.loc 1 784 120
	lla	a0,.LC4
	call	rt_kprintf
	.loc 1 785 16
	li	a5,-1
	j	.L143
.L142:
	.loc 1 789 5
	lw	a5,-36(s0)
	lw	a5,16(a5)
	li	a2,4
	lla	a1,urc_table
	mv	a0,a5
	call	at_obj_set_urc_table
	.loc 1 792 5
	lw	a0,-36(s0)
	call	esp8266_socket_init
	.loc 1 796 48
	lw	a5,-20(s0)
	lw	a5,0(a5)
	.loc 1 796 22
	mv	a0,a5
	call	esp8266_netdev_add
	mv	a4,a0
	.loc 1 796 20
	lw	a5,-36(s0)
	sw	a4,20(a5)
	.loc 1 797 15
	lw	a5,-36(s0)
	lw	a5,20(a5)
	.loc 1 797 8
	bnez	a5,.L144
	.loc 1 799 14
	lla	a0,.LC2
	call	rt_kprintf
	.loc 1 799 57
	lw	a5,-20(s0)
	lw	a5,0(a5)
	mv	a1,a5
	lla	a0,.LC72
	call	rt_kprintf
	.loc 1 799 117
	lla	a0,.LC4
	call	rt_kprintf
	.loc 1 800 16
	li	a5,-1
	j	.L143
.L144:
	.loc 1 804 12
	lw	a5,-36(s0)
	lw	a5,20(a5)
	mv	a0,a5
	call	esp8266_netdev_set_up
	mv	a5,a0
.L143:
	.loc 1 805 1
	mv	a0,a5
	lw	ra,44(sp)
	.cfi_restore 1
	lw	s0,40(sp)
	.cfi_restore 8
	addi	sp,sp,48
	.cfi_def_cfa_register 2
	jr	ra
	.cfi_endproc
.LFE43:
	.size	esp8266_init, .-esp8266_init
	.align	1
	.type	esp8266_deinit, @function
esp8266_deinit:
.LFB44:
	.loc 1 808 1
	.cfi_startproc
	addi	sp,sp,-32
	.cfi_def_cfa_offset 32
	sw	ra,28(sp)
	sw	s0,24(sp)
	.cfi_offset 1, -4
	.cfi_offset 8, -8
	addi	s0,sp,32
	.cfi_def_cfa 8, 0
	sw	a0,-20(s0)
	.loc 1 809 12
	lw	a5,-20(s0)
	lw	a5,20(a5)
	mv	a0,a5
	call	esp8266_netdev_set_down
	mv	a5,a0
	.loc 1 810 1
	mv	a0,a5
	lw	ra,28(sp)
	.cfi_restore 1
	lw	s0,24(sp)
	.cfi_restore 8
	addi	sp,sp,32
	.cfi_def_cfa_register 2
	jr	ra
	.cfi_endproc
.LFE44:
	.size	esp8266_deinit, .-esp8266_deinit
	.align	1
	.type	esp8266_reset, @function
esp8266_reset:
.LFB45:
	.loc 1 814 1
	.cfi_startproc
	addi	sp,sp,-48
	.cfi_def_cfa_offset 48
	sw	ra,44(sp)
	sw	s0,40(sp)
	.cfi_offset 1, -4
	.cfi_offset 8, -8
	addi	s0,sp,48
	.cfi_def_cfa 8, 0
	sw	a0,-36(s0)
	.loc 1 815 9
	sw	zero,-20(s0)
	.loc 1 816 23
	lw	a5,-36(s0)
	lw	a5,16(a5)
	sw	a5,-24(s0)
	.loc 1 819 14
	lla	a2,.LC52
	li	a1,0
	lw	a0,-24(s0)
	call	at_obj_exec_cmd
	sw	a0,-20(s0)
	.loc 1 820 5
	li	a0,1000
	call	rt_thread_mdelay
	.loc 1 823 21
	lw	a5,-36(s0)
	sw	zero,8(a5)
	.loc 1 824 9
	li	a5,4096
	addi	a1,a5,904
	lw	a0,-24(s0)
	call	at_client_obj_wait_connect
	mv	a5,a0
	.loc 1 824 8
	beqz	a5,.L148
	.loc 1 826 16
	li	a5,-2
	j	.L149
.L148:
	.loc 1 830 5
	lw	a0,-36(s0)
	call	esp8266_net_init
	.loc 1 832 21
	lw	a5,-36(s0)
	li	a4,1
	sw	a4,8(a5)
	.loc 1 834 12
	lw	a5,-20(s0)
.L149:
	.loc 1 835 1
	mv	a0,a5
	lw	ra,44(sp)
	.cfi_restore 1
	lw	s0,40(sp)
	.cfi_restore 8
	addi	sp,sp,48
	.cfi_def_cfa_register 2
	jr	ra
	.cfi_endproc
.LFE45:
	.size	esp8266_reset, .-esp8266_reset
	.section	.rodata
	.align	2
.LC73:
	.string	"input wifi ssid(%s) and password(%s) error."
	.text
	.align	1
	.type	esp8266_wifi_info_set, @function
esp8266_wifi_info_set:
.LFB46:
	.loc 1 839 1
	.cfi_startproc
	addi	sp,sp,-48
	.cfi_def_cfa_offset 48
	sw	ra,44(sp)
	sw	s0,40(sp)
	.cfi_offset 1, -4
	.cfi_offset 8, -8
	addi	s0,sp,48
	.cfi_def_cfa 8, 0
	sw	a0,-36(s0)
	sw	a1,-40(s0)
	.loc 1 840 9
	sw	zero,-20(s0)
	.loc 1 841 25
	sw	zero,-24(s0)
	.loc 1 843 13
	lw	a5,-40(s0)
	lw	a5,0(a5)
	.loc 1 843 8
	beqz	a5,.L151
	.loc 1 843 32 discriminator 1
	lw	a5,-40(s0)
	lw	a5,4(a5)
	.loc 1 843 25 discriminator 1
	bnez	a5,.L152
.L151:
	.loc 1 845 14
	lla	a0,.LC2
	call	rt_kprintf
	.loc 1 845 57
	lw	a5,-40(s0)
	lw	a4,0(a5)
	lw	a5,-40(s0)
	lw	a5,4(a5)
	mv	a2,a5
	mv	a1,a4
	lla	a0,.LC73
	call	rt_kprintf
	.loc 1 845 144
	lla	a0,.LC4
	call	rt_kprintf
	.loc 1 846 16
	li	a5,-1
	j	.L153
.L152:
	.loc 1 849 12
	li	a5,20480
	addi	a2,a5,-480
	li	a1,0
	li	a0,128
	call	at_create_resp
	sw	a0,-24(s0)
	.loc 1 850 8
	lw	a5,-24(s0)
	bnez	a5,.L154
	.loc 1 852 14
	lla	a0,.LC2
	call	rt_kprintf
	.loc 1 852 57
	lla	a0,.LC3
	call	rt_kprintf
	.loc 1 852 99
	lla	a0,.LC4
	call	rt_kprintf
	.loc 1 853 16
	li	a5,-5
	j	.L153
.L154:
	.loc 1 857 9
	lw	a5,-36(s0)
	lw	a0,16(a5)
	lw	a5,-40(s0)
	lw	a3,0(a5)
	lw	a5,-40(s0)
	lw	a5,4(a5)
	mv	a4,a5
	lla	a2,.LC59
	lw	a1,-24(s0)
	call	at_obj_exec_cmd
	mv	a5,a0
	.loc 1 857 8
	beqz	a5,.L155
	.loc 1 859 14
	lla	a0,.LC2
	call	rt_kprintf
	.loc 1 859 141
	lw	a4,-36(s0)
	.loc 1 859 57
	lw	a5,-40(s0)
	lw	a2,0(a5)
	lw	a5,-40(s0)
	lw	a5,4(a5)
	mv	a3,a5
	mv	a1,a4
	lla	a0,.LC60
	call	rt_kprintf
	.loc 1 859 178
	lla	a0,.LC4
	call	rt_kprintf
	.loc 1 861 16
	li	a5,-1
	sw	a5,-20(s0)
.L155:
	.loc 1 864 8
	lw	a5,-24(s0)
	beqz	a5,.L156
	.loc 1 866 9
	lw	a0,-24(s0)
	call	at_delete_resp
.L156:
	.loc 1 869 12
	lw	a5,-20(s0)
.L153:
	.loc 1 870 1
	mv	a0,a5
	lw	ra,44(sp)
	.cfi_restore 1
	lw	s0,40(sp)
	.cfi_restore 8
	addi	sp,sp,48
	.cfi_def_cfa_register 2
	jr	ra
	.cfi_endproc
.LFE46:
	.size	esp8266_wifi_info_set, .-esp8266_wifi_info_set
	.section	.rodata
	.align	2
.LC74:
	.string	"device"
	.align	2
.LC75:
	.string	"not support the control cmd(%d)."
	.align	2
.LC76:
	.string	"input error control cmd(%d)."
	.text
	.align	1
	.type	esp8266_control, @function
esp8266_control:
.LFB47:
	.loc 1 873 1
	.cfi_startproc
	addi	sp,sp,-48
	.cfi_def_cfa_offset 48
	sw	ra,44(sp)
	sw	s0,40(sp)
	.cfi_offset 1, -4
	.cfi_offset 8, -8
	addi	s0,sp,48
	.cfi_def_cfa 8, 0
	sw	a0,-36(s0)
	sw	a1,-40(s0)
	sw	a2,-44(s0)
	.loc 1 874 9
	li	a5,-1
	sw	a5,-20(s0)
	.loc 1 876 8
	lw	a5,-36(s0)
	bnez	a5,.L158
	.loc 1 876 22 discriminator 1
	li	a2,876
	lla	a1,__FUNCTION__.5453
	lla	a0,.LC74
	call	rt_assert_handler
.L158:
	.loc 1 878 5
	lw	a4,-40(s0)
	li	a5,12
	bgtu	a4,a5,.L159
	lw	a5,-40(s0)
	slli	a4,a5,2
	lla	a5,.L161
	add	a5,a4,a5
	lw	a4,0(a5)
	lla	a5,.L161
	add	a5,a4,a5
	jr	a5
	.section	.rodata
	.align	2
	.align	2
.L161:
	.word	.L159-.L161
	.word	.L160-.L161
	.word	.L160-.L161
	.word	.L163-.L161
	.word	.L160-.L161
	.word	.L160-.L161
	.word	.L160-.L161
	.word	.L160-.L161
	.word	.L160-.L161
	.word	.L162-.L161
	.word	.L160-.L161
	.word	.L160-.L161
	.word	.L160-.L161
	.text
.L160:
	.loc 1 890 14
	lla	a0,.LC16
	call	rt_kprintf
	.loc 1 890 57
	lw	a1,-40(s0)
	lla	a0,.LC75
	call	rt_kprintf
	.loc 1 890 110
	lla	a0,.LC4
	call	rt_kprintf
	.loc 1 891 9
	j	.L164
.L163:
	.loc 1 893 18
	lw	a0,-36(s0)
	call	esp8266_reset
	sw	a0,-20(s0)
	.loc 1 894 9
	j	.L164
.L162:
	.loc 1 896 18
	lw	a1,-44(s0)
	lw	a0,-36(s0)
	call	esp8266_wifi_info_set
	sw	a0,-20(s0)
	.loc 1 897 9
	j	.L164
.L159:
	.loc 1 899 14
	lla	a0,.LC2
	call	rt_kprintf
	.loc 1 899 57
	lw	a1,-40(s0)
	lla	a0,.LC76
	call	rt_kprintf
	.loc 1 899 106
	lla	a0,.LC4
	call	rt_kprintf
	.loc 1 900 9
	nop
.L164:
	.loc 1 903 12
	lw	a5,-20(s0)
	.loc 1 904 1
	mv	a0,a5
	lw	ra,44(sp)
	.cfi_restore 1
	lw	s0,40(sp)
	.cfi_restore 8
	addi	sp,sp,48
	.cfi_def_cfa_register 2
	jr	ra
	.cfi_endproc
.LFE47:
	.size	esp8266_control, .-esp8266_control
	.section	.rodata
	.align	2
	.type	esp8266_device_ops, @object
	.size	esp8266_device_ops, 12
esp8266_device_ops:
	.word	esp8266_init
	.word	esp8266_deinit
	.word	esp8266_control
	.align	2
.LC77:
	.string	"no memory for class create."
	.text
	.align	1
	.type	esp8266_device_class_register, @function
esp8266_device_class_register:
.LFB48:
	.loc 1 914 1
	.cfi_startproc
	addi	sp,sp,-32
	.cfi_def_cfa_offset 32
	sw	ra,28(sp)
	sw	s0,24(sp)
	.cfi_offset 1, -4
	.cfi_offset 8, -8
	addi	s0,sp,32
	.cfi_def_cfa 8, 0
	.loc 1 915 29
	sw	zero,-20(s0)
	.loc 1 917 40
	li	a1,20
	li	a0,1
	call	rt_calloc
	sw	a0,-20(s0)
	.loc 1 918 8
	lw	a5,-20(s0)
	bnez	a5,.L167
	.loc 1 920 14
	lla	a0,.LC2
	call	rt_kprintf
	.loc 1 920 57
	lla	a0,.LC77
	call	rt_kprintf
	.loc 1 920 100
	lla	a0,.LC4
	call	rt_kprintf
	.loc 1 921 16
	li	a5,-5
	j	.L168
.L167:
	.loc 1 926 5
	lw	a0,-20(s0)
	call	esp8266_socket_class_register
	.loc 1 928 23
	lw	a5,-20(s0)
	lla	a4,esp8266_device_ops
	sw	a4,4(a5)
	.loc 1 930 12
	li	a1,1
	lw	a0,-20(s0)
	call	at_device_class_register
	mv	a5,a0
.L168:
	.loc 1 931 1
	mv	a0,a5
	lw	ra,28(sp)
	.cfi_restore 1
	lw	s0,24(sp)
	.cfi_restore 8
	addi	sp,sp,32
	.cfi_def_cfa_register 2
	jr	ra
	.cfi_endproc
.LFE48:
	.size	esp8266_device_class_register, .-esp8266_device_class_register
	.globl	__rt_init_esp8266_device_class_register
	.section	.rti_fn.3,"a"
	.align	2
	.type	__rt_init_esp8266_device_class_register, @object
	.size	__rt_init_esp8266_device_class_register, 4
__rt_init_esp8266_device_class_register:
	.word	esp8266_device_class_register
	.section	.rodata
	.align	2
	.type	__FUNCTION__.5328, @object
	.size	__FUNCTION__.5328, 29
__FUNCTION__.5328:
	.string	"esp8266_netdev_set_addr_info"
	.align	2
	.type	__FUNCTION__.5338, @object
	.size	__FUNCTION__.5338, 30
__FUNCTION__.5338:
	.string	"esp8266_netdev_set_dns_server"
	.align	2
	.type	__FUNCTION__.5346, @object
	.size	__FUNCTION__.5346, 24
__FUNCTION__.5346:
	.string	"esp8266_netdev_set_dhcp"
	.align	2
	.type	__FUNCTION__.5360, @object
	.size	__FUNCTION__.5360, 20
__FUNCTION__.5360:
	.string	"esp8266_netdev_ping"
	.align	2
	.type	__FUNCTION__.5381, @object
	.size	__FUNCTION__.5381, 19
__FUNCTION__.5381:
	.string	"esp8266_netdev_add"
	.align	2
	.type	__FUNCTION__.5427, @object
	.size	__FUNCTION__.5427, 9
__FUNCTION__.5427:
	.string	"urc_func"
	.align	2
	.type	__FUNCTION__.5453, @object
	.size	__FUNCTION__.5453, 16
__FUNCTION__.5453:
	.string	"esp8266_control"
	.text
.Letext0:
	.file 2 "c:\\rt-threadstudio\\repo\\extract\\toolchain_support_packages\\wch\\risc-v-gcc-wch\\8.2.0\\riscv-none-embed\\include\\machine\\_default_types.h"
	.file 3 "c:\\rt-threadstudio\\repo\\extract\\toolchain_support_packages\\wch\\risc-v-gcc-wch\\8.2.0\\lib\\gcc\\riscv-none-embed\\8.2.0\\include\\stddef.h"
	.file 4 "c:\\rt-threadstudio\\repo\\extract\\toolchain_support_packages\\wch\\risc-v-gcc-wch\\8.2.0\\riscv-none-embed\\include\\sys\\lock.h"
	.file 5 "c:\\rt-threadstudio\\repo\\extract\\toolchain_support_packages\\wch\\risc-v-gcc-wch\\8.2.0\\riscv-none-embed\\include\\sys\\_types.h"
	.file 6 "c:\\rt-threadstudio\\repo\\extract\\toolchain_support_packages\\wch\\risc-v-gcc-wch\\8.2.0\\riscv-none-embed\\include\\sys\\reent.h"
	.file 7 "c:\\rt-threadstudio\\repo\\extract\\toolchain_support_packages\\wch\\risc-v-gcc-wch\\8.2.0\\riscv-none-embed\\include\\sys\\_stdint.h"
	.file 8 "c:\\rt-threadstudio\\repo\\extract\\toolchain_support_packages\\wch\\risc-v-gcc-wch\\8.2.0\\riscv-none-embed\\include\\sys\\types.h"
	.file 9 "C:\\RT-ThreadStudio\\workspace\\AQMS_LCD\\rt-thread\\include/rtdef.h"
	.file 10 "C:\\RT-ThreadStudio\\workspace\\AQMS_LCD\\rt-thread\\include/rtthread.h"
	.file 11 "C:\\RT-ThreadStudio\\workspace\\AQMS_LCD\\rt-thread\\components\\finsh/finsh.h"
	.file 12 "C:\\RT-ThreadStudio\\workspace\\AQMS_LCD\\rt-thread\\components\\net\\at\\include/at.h"
	.file 13 "C:\\RT-ThreadStudio\\workspace\\AQMS_LCD\\rt-thread\\components\\drivers\\include/ipc/workqueue.h"
	.file 14 "c:\\rt-threadstudio\\repo\\extract\\toolchain_support_packages\\wch\\risc-v-gcc-wch\\8.2.0\\riscv-none-embed\\include\\time.h"
	.file 15 "C:\\RT-ThreadStudio\\workspace\\AQMS_LCD\\rt-thread\\components\\net\\netdev\\include/netdev_ipaddr.h"
	.file 16 "C:\\RT-ThreadStudio\\workspace\\AQMS_LCD\\rt-thread\\components\\net\\at\\at_socket/at_socket.h"
	.file 17 "C:\\RT-ThreadStudio\\workspace\\AQMS_LCD\\packages\\at_device-latest\\inc/at_device.h"
	.file 18 "C:\\RT-ThreadStudio\\workspace\\AQMS_LCD\\rt-thread\\components\\net\\netdev\\include/netdev.h"
	.file 19 "C:\\RT-ThreadStudio\\workspace\\AQMS_LCD\\packages\\at_device-latest\\class\\esp8266/at_device_esp8266.h"